
./ctarget:     file format elf64-x86-64


Disassembly of section .init:

0000000000400c48 <_init>:
  400c48:	48 83 ec 08          	sub    $0x8,%rsp
  400c4c:	48 8b 05 a5 33 20 00 	mov    0x2033a5(%rip),%rax        # 603ff8 <__gmon_start__>
  400c53:	48 85 c0             	test   %rax,%rax
  400c56:	74 02                	je     400c5a <_init+0x12>
  400c58:	ff d0                	call   *%rax
  400c5a:	48 83 c4 08          	add    $0x8,%rsp
  400c5e:	c3                   	ret

Disassembly of section .plt:

0000000000400c60 <.plt>:
  400c60:	ff 35 a2 33 20 00    	push   0x2033a2(%rip)        # 604008 <_GLOBAL_OFFSET_TABLE_+0x8>
  400c66:	ff 25 a4 33 20 00    	jmp    *0x2033a4(%rip)        # 604010 <_GLOBAL_OFFSET_TABLE_+0x10>
  400c6c:	0f 1f 40 00          	nopl   0x0(%rax)

0000000000400c70 <strcasecmp@plt>:
  400c70:	ff 25 a2 33 20 00    	jmp    *0x2033a2(%rip)        # 604018 <strcasecmp@GLIBC_2.2.5>
  400c76:	68 00 00 00 00       	push   $0x0
  400c7b:	e9 e0 ff ff ff       	jmp    400c60 <.plt>

0000000000400c80 <__errno_location@plt>:
  400c80:	ff 25 9a 33 20 00    	jmp    *0x20339a(%rip)        # 604020 <__errno_location@GLIBC_2.2.5>
  400c86:	68 01 00 00 00       	push   $0x1
  400c8b:	e9 d0 ff ff ff       	jmp    400c60 <.plt>

0000000000400c90 <srandom@plt>:
  400c90:	ff 25 92 33 20 00    	jmp    *0x203392(%rip)        # 604028 <srandom@GLIBC_2.2.5>
  400c96:	68 02 00 00 00       	push   $0x2
  400c9b:	e9 c0 ff ff ff       	jmp    400c60 <.plt>

0000000000400ca0 <strncmp@plt>:
  400ca0:	ff 25 8a 33 20 00    	jmp    *0x20338a(%rip)        # 604030 <strncmp@GLIBC_2.2.5>
  400ca6:	68 03 00 00 00       	push   $0x3
  400cab:	e9 b0 ff ff ff       	jmp    400c60 <.plt>

0000000000400cb0 <strcpy@plt>:
  400cb0:	ff 25 82 33 20 00    	jmp    *0x203382(%rip)        # 604038 <strcpy@GLIBC_2.2.5>
  400cb6:	68 04 00 00 00       	push   $0x4
  400cbb:	e9 a0 ff ff ff       	jmp    400c60 <.plt>

0000000000400cc0 <puts@plt>:
  400cc0:	ff 25 7a 33 20 00    	jmp    *0x20337a(%rip)        # 604040 <puts@GLIBC_2.2.5>
  400cc6:	68 05 00 00 00       	push   $0x5
  400ccb:	e9 90 ff ff ff       	jmp    400c60 <.plt>

0000000000400cd0 <write@plt>:
  400cd0:	ff 25 72 33 20 00    	jmp    *0x203372(%rip)        # 604048 <write@GLIBC_2.2.5>
  400cd6:	68 06 00 00 00       	push   $0x6
  400cdb:	e9 80 ff ff ff       	jmp    400c60 <.plt>

0000000000400ce0 <__stack_chk_fail@plt>:
  400ce0:	ff 25 6a 33 20 00    	jmp    *0x20336a(%rip)        # 604050 <__stack_chk_fail@GLIBC_2.4>
  400ce6:	68 07 00 00 00       	push   $0x7
  400ceb:	e9 70 ff ff ff       	jmp    400c60 <.plt>

0000000000400cf0 <mmap@plt>:
  400cf0:	ff 25 62 33 20 00    	jmp    *0x203362(%rip)        # 604058 <mmap@GLIBC_2.2.5>
  400cf6:	68 08 00 00 00       	push   $0x8
  400cfb:	e9 60 ff ff ff       	jmp    400c60 <.plt>

0000000000400d00 <memset@plt>:
  400d00:	ff 25 5a 33 20 00    	jmp    *0x20335a(%rip)        # 604060 <memset@GLIBC_2.2.5>
  400d06:	68 09 00 00 00       	push   $0x9
  400d0b:	e9 50 ff ff ff       	jmp    400c60 <.plt>

0000000000400d10 <alarm@plt>:
  400d10:	ff 25 52 33 20 00    	jmp    *0x203352(%rip)        # 604068 <alarm@GLIBC_2.2.5>
  400d16:	68 0a 00 00 00       	push   $0xa
  400d1b:	e9 40 ff ff ff       	jmp    400c60 <.plt>

0000000000400d20 <close@plt>:
  400d20:	ff 25 4a 33 20 00    	jmp    *0x20334a(%rip)        # 604070 <close@GLIBC_2.2.5>
  400d26:	68 0b 00 00 00       	push   $0xb
  400d2b:	e9 30 ff ff ff       	jmp    400c60 <.plt>

0000000000400d30 <read@plt>:
  400d30:	ff 25 42 33 20 00    	jmp    *0x203342(%rip)        # 604078 <read@GLIBC_2.2.5>
  400d36:	68 0c 00 00 00       	push   $0xc
  400d3b:	e9 20 ff ff ff       	jmp    400c60 <.plt>

0000000000400d40 <signal@plt>:
  400d40:	ff 25 3a 33 20 00    	jmp    *0x20333a(%rip)        # 604080 <signal@GLIBC_2.2.5>
  400d46:	68 0d 00 00 00       	push   $0xd
  400d4b:	e9 10 ff ff ff       	jmp    400c60 <.plt>

0000000000400d50 <gethostbyname@plt>:
  400d50:	ff 25 32 33 20 00    	jmp    *0x203332(%rip)        # 604088 <gethostbyname@GLIBC_2.2.5>
  400d56:	68 0e 00 00 00       	push   $0xe
  400d5b:	e9 00 ff ff ff       	jmp    400c60 <.plt>

0000000000400d60 <__memmove_chk@plt>:
  400d60:	ff 25 2a 33 20 00    	jmp    *0x20332a(%rip)        # 604090 <__memmove_chk@GLIBC_2.3.4>
  400d66:	68 0f 00 00 00       	push   $0xf
  400d6b:	e9 f0 fe ff ff       	jmp    400c60 <.plt>

0000000000400d70 <strtol@plt>:
  400d70:	ff 25 22 33 20 00    	jmp    *0x203322(%rip)        # 604098 <strtol@GLIBC_2.2.5>
  400d76:	68 10 00 00 00       	push   $0x10
  400d7b:	e9 e0 fe ff ff       	jmp    400c60 <.plt>

0000000000400d80 <memcpy@plt>:
  400d80:	ff 25 1a 33 20 00    	jmp    *0x20331a(%rip)        # 6040a0 <memcpy@GLIBC_2.14>
  400d86:	68 11 00 00 00       	push   $0x11
  400d8b:	e9 d0 fe ff ff       	jmp    400c60 <.plt>

0000000000400d90 <time@plt>:
  400d90:	ff 25 12 33 20 00    	jmp    *0x203312(%rip)        # 6040a8 <time@GLIBC_2.2.5>
  400d96:	68 12 00 00 00       	push   $0x12
  400d9b:	e9 c0 fe ff ff       	jmp    400c60 <.plt>

0000000000400da0 <random@plt>:
  400da0:	ff 25 0a 33 20 00    	jmp    *0x20330a(%rip)        # 6040b0 <random@GLIBC_2.2.5>
  400da6:	68 13 00 00 00       	push   $0x13
  400dab:	e9 b0 fe ff ff       	jmp    400c60 <.plt>

0000000000400db0 <_IO_getc@plt>:
  400db0:	ff 25 02 33 20 00    	jmp    *0x203302(%rip)        # 6040b8 <_IO_getc@GLIBC_2.2.5>
  400db6:	68 14 00 00 00       	push   $0x14
  400dbb:	e9 a0 fe ff ff       	jmp    400c60 <.plt>

0000000000400dc0 <__isoc99_sscanf@plt>:
  400dc0:	ff 25 fa 32 20 00    	jmp    *0x2032fa(%rip)        # 6040c0 <__isoc99_sscanf@GLIBC_2.7>
  400dc6:	68 15 00 00 00       	push   $0x15
  400dcb:	e9 90 fe ff ff       	jmp    400c60 <.plt>

0000000000400dd0 <munmap@plt>:
  400dd0:	ff 25 f2 32 20 00    	jmp    *0x2032f2(%rip)        # 6040c8 <munmap@GLIBC_2.2.5>
  400dd6:	68 16 00 00 00       	push   $0x16
  400ddb:	e9 80 fe ff ff       	jmp    400c60 <.plt>

0000000000400de0 <__printf_chk@plt>:
  400de0:	ff 25 ea 32 20 00    	jmp    *0x2032ea(%rip)        # 6040d0 <__printf_chk@GLIBC_2.3.4>
  400de6:	68 17 00 00 00       	push   $0x17
  400deb:	e9 70 fe ff ff       	jmp    400c60 <.plt>

0000000000400df0 <fopen@plt>:
  400df0:	ff 25 e2 32 20 00    	jmp    *0x2032e2(%rip)        # 6040d8 <fopen@GLIBC_2.2.5>
  400df6:	68 18 00 00 00       	push   $0x18
  400dfb:	e9 60 fe ff ff       	jmp    400c60 <.plt>

0000000000400e00 <getopt@plt>:
  400e00:	ff 25 da 32 20 00    	jmp    *0x2032da(%rip)        # 6040e0 <getopt@GLIBC_2.2.5>
  400e06:	68 19 00 00 00       	push   $0x19
  400e0b:	e9 50 fe ff ff       	jmp    400c60 <.plt>

0000000000400e10 <strtoul@plt>:
  400e10:	ff 25 d2 32 20 00    	jmp    *0x2032d2(%rip)        # 6040e8 <strtoul@GLIBC_2.2.5>
  400e16:	68 1a 00 00 00       	push   $0x1a
  400e1b:	e9 40 fe ff ff       	jmp    400c60 <.plt>

0000000000400e20 <gethostname@plt>:
  400e20:	ff 25 ca 32 20 00    	jmp    *0x2032ca(%rip)        # 6040f0 <gethostname@GLIBC_2.2.5>
  400e26:	68 1b 00 00 00       	push   $0x1b
  400e2b:	e9 30 fe ff ff       	jmp    400c60 <.plt>

0000000000400e30 <exit@plt>:
  400e30:	ff 25 c2 32 20 00    	jmp    *0x2032c2(%rip)        # 6040f8 <exit@GLIBC_2.2.5>
  400e36:	68 1c 00 00 00       	push   $0x1c
  400e3b:	e9 20 fe ff ff       	jmp    400c60 <.plt>

0000000000400e40 <connect@plt>:
  400e40:	ff 25 ba 32 20 00    	jmp    *0x2032ba(%rip)        # 604100 <connect@GLIBC_2.2.5>
  400e46:	68 1d 00 00 00       	push   $0x1d
  400e4b:	e9 10 fe ff ff       	jmp    400c60 <.plt>

0000000000400e50 <__fprintf_chk@plt>:
  400e50:	ff 25 b2 32 20 00    	jmp    *0x2032b2(%rip)        # 604108 <__fprintf_chk@GLIBC_2.3.4>
  400e56:	68 1e 00 00 00       	push   $0x1e
  400e5b:	e9 00 fe ff ff       	jmp    400c60 <.plt>

0000000000400e60 <__sprintf_chk@plt>:
  400e60:	ff 25 aa 32 20 00    	jmp    *0x2032aa(%rip)        # 604110 <__sprintf_chk@GLIBC_2.3.4>
  400e66:	68 1f 00 00 00       	push   $0x1f
  400e6b:	e9 f0 fd ff ff       	jmp    400c60 <.plt>

0000000000400e70 <socket@plt>:
  400e70:	ff 25 a2 32 20 00    	jmp    *0x2032a2(%rip)        # 604118 <socket@GLIBC_2.2.5>
  400e76:	68 20 00 00 00       	push   $0x20
  400e7b:	e9 e0 fd ff ff       	jmp    400c60 <.plt>

Disassembly of section .text:

0000000000400e80 <_start>:
  400e80:	31 ed                	xor    %ebp,%ebp
  400e82:	49 89 d1             	mov    %rdx,%r9
  400e85:	5e                   	pop    %rsi
  400e86:	48 89 e2             	mov    %rsp,%rdx
  400e89:	48 83 e4 f0          	and    $0xfffffffffffffff0,%rsp
  400e8d:	50                   	push   %rax
  400e8e:	54                   	push   %rsp
  400e8f:	49 c7 c0 70 2e 40 00 	mov    $0x402e70,%r8
  400e96:	48 c7 c1 00 2e 40 00 	mov    $0x402e00,%rcx
  400e9d:	48 c7 c7 8e 11 40 00 	mov    $0x40118e,%rdi
  400ea4:	ff 15 46 31 20 00    	call   *0x203146(%rip)        # 603ff0 <__libc_start_main@GLIBC_2.2.5>
  400eaa:	f4                   	hlt
  400eab:	0f 1f 44 00 00       	nopl   0x0(%rax,%rax,1)

0000000000400eb0 <_dl_relocate_static_pie>:
  400eb0:	f3 c3                	repz ret
  400eb2:	66 2e 0f 1f 84 00 00 	cs nopw 0x0(%rax,%rax,1)
  400eb9:	00 00 00 
  400ebc:	0f 1f 40 00          	nopl   0x0(%rax)

0000000000400ec0 <deregister_tm_clones>:
  400ec0:	55                   	push   %rbp
  400ec1:	b8 90 44 60 00       	mov    $0x604490,%eax
  400ec6:	48 3d 90 44 60 00    	cmp    $0x604490,%rax
  400ecc:	48 89 e5             	mov    %rsp,%rbp
  400ecf:	74 17                	je     400ee8 <deregister_tm_clones+0x28>
  400ed1:	b8 00 00 00 00       	mov    $0x0,%eax
  400ed6:	48 85 c0             	test   %rax,%rax
  400ed9:	74 0d                	je     400ee8 <deregister_tm_clones+0x28>
  400edb:	5d                   	pop    %rbp
  400edc:	bf 90 44 60 00       	mov    $0x604490,%edi
  400ee1:	ff e0                	jmp    *%rax
  400ee3:	0f 1f 44 00 00       	nopl   0x0(%rax,%rax,1)
  400ee8:	5d                   	pop    %rbp
  400ee9:	c3                   	ret
  400eea:	66 0f 1f 44 00 00    	nopw   0x0(%rax,%rax,1)

0000000000400ef0 <register_tm_clones>:
  400ef0:	be 90 44 60 00       	mov    $0x604490,%esi
  400ef5:	55                   	push   %rbp
  400ef6:	48 81 ee 90 44 60 00 	sub    $0x604490,%rsi
  400efd:	48 89 e5             	mov    %rsp,%rbp
  400f00:	48 c1 fe 03          	sar    $0x3,%rsi
  400f04:	48 89 f0             	mov    %rsi,%rax
  400f07:	48 c1 e8 3f          	shr    $0x3f,%rax
  400f0b:	48 01 c6             	add    %rax,%rsi
  400f0e:	48 d1 fe             	sar    $1,%rsi
  400f11:	74 15                	je     400f28 <register_tm_clones+0x38>
  400f13:	b8 00 00 00 00       	mov    $0x0,%eax
  400f18:	48 85 c0             	test   %rax,%rax
  400f1b:	74 0b                	je     400f28 <register_tm_clones+0x38>
  400f1d:	5d                   	pop    %rbp
  400f1e:	bf 90 44 60 00       	mov    $0x604490,%edi
  400f23:	ff e0                	jmp    *%rax
  400f25:	0f 1f 00             	nopl   (%rax)
  400f28:	5d                   	pop    %rbp
  400f29:	c3                   	ret
  400f2a:	66 0f 1f 44 00 00    	nopw   0x0(%rax,%rax,1)

0000000000400f30 <__do_global_dtors_aux>:
  400f30:	80 3d 91 35 20 00 00 	cmpb   $0x0,0x203591(%rip)        # 6044c8 <completed.7698>
  400f37:	75 17                	jne    400f50 <__do_global_dtors_aux+0x20>
  400f39:	55                   	push   %rbp
  400f3a:	48 89 e5             	mov    %rsp,%rbp
  400f3d:	e8 7e ff ff ff       	call   400ec0 <deregister_tm_clones>
  400f42:	c6 05 7f 35 20 00 01 	movb   $0x1,0x20357f(%rip)        # 6044c8 <completed.7698>
  400f49:	5d                   	pop    %rbp
  400f4a:	c3                   	ret
  400f4b:	0f 1f 44 00 00       	nopl   0x0(%rax,%rax,1)
  400f50:	f3 c3                	repz ret
  400f52:	0f 1f 40 00          	nopl   0x0(%rax)
  400f56:	66 2e 0f 1f 84 00 00 	cs nopw 0x0(%rax,%rax,1)
  400f5d:	00 00 00 

0000000000400f60 <frame_dummy>:
  400f60:	55                   	push   %rbp
  400f61:	48 89 e5             	mov    %rsp,%rbp
  400f64:	5d                   	pop    %rbp
  400f65:	eb 89                	jmp    400ef0 <register_tm_clones>

0000000000400f67 <usage>:
  400f67:	48 83 ec 08          	sub    $0x8,%rsp
  400f6b:	48 89 fa             	mov    %rdi,%rdx
  400f6e:	83 3d 93 35 20 00 00 	cmpl   $0x0,0x203593(%rip)        # 604508 <is_checker>
  400f75:	74 50                	je     400fc7 <usage+0x60>
  400f77:	48 8d 35 0a 1f 00 00 	lea    0x1f0a(%rip),%rsi        # 402e88 <_IO_stdin_used+0x8>
  400f7e:	bf 01 00 00 00       	mov    $0x1,%edi
  400f83:	b8 00 00 00 00       	mov    $0x0,%eax
  400f88:	e8 53 fe ff ff       	call   400de0 <__printf_chk@plt>
  400f8d:	48 8d 3d 2c 1f 00 00 	lea    0x1f2c(%rip),%rdi        # 402ec0 <_IO_stdin_used+0x40>
  400f94:	e8 27 fd ff ff       	call   400cc0 <puts@plt>
  400f99:	48 8d 3d 98 20 00 00 	lea    0x2098(%rip),%rdi        # 403038 <_IO_stdin_used+0x1b8>
  400fa0:	e8 1b fd ff ff       	call   400cc0 <puts@plt>
  400fa5:	48 8d 3d 3c 1f 00 00 	lea    0x1f3c(%rip),%rdi        # 402ee8 <_IO_stdin_used+0x68>
  400fac:	e8 0f fd ff ff       	call   400cc0 <puts@plt>
  400fb1:	48 8d 3d 9a 20 00 00 	lea    0x209a(%rip),%rdi        # 403052 <_IO_stdin_used+0x1d2>
  400fb8:	e8 03 fd ff ff       	call   400cc0 <puts@plt>
  400fbd:	bf 00 00 00 00       	mov    $0x0,%edi
  400fc2:	e8 69 fe ff ff       	call   400e30 <exit@plt>
  400fc7:	48 8d 35 a0 20 00 00 	lea    0x20a0(%rip),%rsi        # 40306e <_IO_stdin_used+0x1ee>
  400fce:	bf 01 00 00 00       	mov    $0x1,%edi
  400fd3:	b8 00 00 00 00       	mov    $0x0,%eax
  400fd8:	e8 03 fe ff ff       	call   400de0 <__printf_chk@plt>
  400fdd:	48 8d 3d 2c 1f 00 00 	lea    0x1f2c(%rip),%rdi        # 402f10 <_IO_stdin_used+0x90>
  400fe4:	e8 d7 fc ff ff       	call   400cc0 <puts@plt>
  400fe9:	48 8d 3d 48 1f 00 00 	lea    0x1f48(%rip),%rdi        # 402f38 <_IO_stdin_used+0xb8>
  400ff0:	e8 cb fc ff ff       	call   400cc0 <puts@plt>
  400ff5:	48 8d 3d 90 20 00 00 	lea    0x2090(%rip),%rdi        # 40308c <_IO_stdin_used+0x20c>
  400ffc:	e8 bf fc ff ff       	call   400cc0 <puts@plt>
  401001:	eb ba                	jmp    400fbd <usage+0x56>

0000000000401003 <initialize_target>:
  401003:	55                   	push   %rbp
  401004:	53                   	push   %rbx
  401005:	48 81 ec 18 21 00 00 	sub    $0x2118,%rsp
  40100c:	89 f5                	mov    %esi,%ebp
  40100e:	64 48 8b 04 25 28 00 	mov    %fs:0x28,%rax
  401015:	00 00 
  401017:	48 89 84 24 08 21 00 	mov    %rax,0x2108(%rsp)
  40101e:	00 
  40101f:	31 c0                	xor    %eax,%eax
  401021:	89 3d d1 34 20 00    	mov    %edi,0x2034d1(%rip)        # 6044f8 <check_level>
  401027:	8b 3d 03 31 20 00    	mov    0x203103(%rip),%edi        # 604130 <target_id>
  40102d:	e8 a0 1d 00 00       	call   402dd2 <gencookie>
  401032:	89 05 cc 34 20 00    	mov    %eax,0x2034cc(%rip)        # 604504 <cookie>
  401038:	89 c7                	mov    %eax,%edi
  40103a:	e8 93 1d 00 00       	call   402dd2 <gencookie>
  40103f:	89 05 bb 34 20 00    	mov    %eax,0x2034bb(%rip)        # 604500 <authkey>
  401045:	8b 05 e5 30 20 00    	mov    0x2030e5(%rip),%eax        # 604130 <target_id>
  40104b:	8d 78 01             	lea    0x1(%rax),%edi
  40104e:	e8 3d fc ff ff       	call   400c90 <srandom@plt>
  401053:	e8 48 fd ff ff       	call   400da0 <random@plt>
  401058:	89 c7                	mov    %eax,%edi
  40105a:	e8 1a 03 00 00       	call   401379 <scramble>
  40105f:	89 c3                	mov    %eax,%ebx
  401061:	85 ed                	test   %ebp,%ebp
  401063:	75 54                	jne    4010b9 <initialize_target+0xb6>
  401065:	b8 00 00 00 00       	mov    $0x0,%eax
  40106a:	01 d8                	add    %ebx,%eax
  40106c:	0f b7 c0             	movzwl %ax,%eax
  40106f:	8d 04 c5 00 01 00 00 	lea    0x100(,%rax,8),%eax
  401076:	89 c0                	mov    %eax,%eax
  401078:	48 89 05 01 34 20 00 	mov    %rax,0x203401(%rip)        # 604480 <buf_offset>
  40107f:	c6 05 a2 40 20 00 63 	movb   $0x63,0x2040a2(%rip)        # 605128 <target_prefix>
  401086:	83 3d fb 33 20 00 00 	cmpl   $0x0,0x2033fb(%rip)        # 604488 <notify>
  40108d:	74 09                	je     401098 <initialize_target+0x95>
  40108f:	83 3d 72 34 20 00 00 	cmpl   $0x0,0x203472(%rip)        # 604508 <is_checker>
  401096:	74 39                	je     4010d1 <initialize_target+0xce>
  401098:	48 8b 84 24 08 21 00 	mov    0x2108(%rsp),%rax
  40109f:	00 
  4010a0:	64 48 33 04 25 28 00 	xor    %fs:0x28,%rax
  4010a7:	00 00 
  4010a9:	0f 85 da 00 00 00    	jne    401189 <initialize_target+0x186>
  4010af:	48 81 c4 18 21 00 00 	add    $0x2118,%rsp
  4010b6:	5b                   	pop    %rbx
  4010b7:	5d                   	pop    %rbp
  4010b8:	c3                   	ret
  4010b9:	bf 00 00 00 00       	mov    $0x0,%edi
  4010be:	e8 cd fc ff ff       	call   400d90 <time@plt>
  4010c3:	89 c7                	mov    %eax,%edi
  4010c5:	e8 c6 fb ff ff       	call   400c90 <srandom@plt>
  4010ca:	e8 d1 fc ff ff       	call   400da0 <random@plt>
  4010cf:	eb 99                	jmp    40106a <initialize_target+0x67>
  4010d1:	48 89 e7             	mov    %rsp,%rdi
  4010d4:	be 00 01 00 00       	mov    $0x100,%esi
  4010d9:	e8 42 fd ff ff       	call   400e20 <gethostname@plt>
  4010de:	89 c5                	mov    %eax,%ebp
  4010e0:	85 c0                	test   %eax,%eax
  4010e2:	75 26                	jne    40110a <initialize_target+0x107>
  4010e4:	89 c3                	mov    %eax,%ebx
  4010e6:	48 63 c3             	movslq %ebx,%rax
  4010e9:	48 8d 15 70 30 20 00 	lea    0x203070(%rip),%rdx        # 604160 <host_table>
  4010f0:	48 8b 3c c2          	mov    (%rdx,%rax,8),%rdi
  4010f4:	48 85 ff             	test   %rdi,%rdi
  4010f7:	74 2c                	je     401125 <initialize_target+0x122>
  4010f9:	48 89 e6             	mov    %rsp,%rsi
  4010fc:	e8 6f fb ff ff       	call   400c70 <strcasecmp@plt>
  401101:	85 c0                	test   %eax,%eax
  401103:	74 1b                	je     401120 <initialize_target+0x11d>
  401105:	83 c3 01             	add    $0x1,%ebx
  401108:	eb dc                	jmp    4010e6 <initialize_target+0xe3>
  40110a:	48 8d 3d 57 1e 00 00 	lea    0x1e57(%rip),%rdi        # 402f68 <_IO_stdin_used+0xe8>
  401111:	e8 aa fb ff ff       	call   400cc0 <puts@plt>
  401116:	bf 08 00 00 00       	mov    $0x8,%edi
  40111b:	e8 10 fd ff ff       	call   400e30 <exit@plt>
  401120:	bd 01 00 00 00       	mov    $0x1,%ebp
  401125:	85 ed                	test   %ebp,%ebp
  401127:	74 3d                	je     401166 <initialize_target+0x163>
  401129:	48 8d bc 24 00 01 00 	lea    0x100(%rsp),%rdi
  401130:	00 
  401131:	e8 cc 19 00 00       	call   402b02 <init_driver>
  401136:	85 c0                	test   %eax,%eax
  401138:	0f 89 5a ff ff ff    	jns    401098 <initialize_target+0x95>
  40113e:	48 8d 94 24 00 01 00 	lea    0x100(%rsp),%rdx
  401145:	00 
  401146:	48 8d 35 93 1e 00 00 	lea    0x1e93(%rip),%rsi        # 402fe0 <_IO_stdin_used+0x160>
  40114d:	bf 01 00 00 00       	mov    $0x1,%edi
  401152:	b8 00 00 00 00       	mov    $0x0,%eax
  401157:	e8 84 fc ff ff       	call   400de0 <__printf_chk@plt>
  40115c:	bf 08 00 00 00       	mov    $0x8,%edi
  401161:	e8 ca fc ff ff       	call   400e30 <exit@plt>
  401166:	48 89 e2             	mov    %rsp,%rdx
  401169:	48 8d 35 30 1e 00 00 	lea    0x1e30(%rip),%rsi        # 402fa0 <_IO_stdin_used+0x120>
  401170:	bf 01 00 00 00       	mov    $0x1,%edi
  401175:	b8 00 00 00 00       	mov    $0x0,%eax
  40117a:	e8 61 fc ff ff       	call   400de0 <__printf_chk@plt>
  40117f:	bf 08 00 00 00       	mov    $0x8,%edi
  401184:	e8 a7 fc ff ff       	call   400e30 <exit@plt>
  401189:	e8 52 fb ff ff       	call   400ce0 <__stack_chk_fail@plt>

000000000040118e <main>:
  40118e:	41 56                	push   %r14
  401190:	41 55                	push   %r13
  401192:	41 54                	push   %r12
  401194:	55                   	push   %rbp
  401195:	53                   	push   %rbx
  401196:	41 89 fc             	mov    %edi,%r12d
  401199:	48 89 f3             	mov    %rsi,%rbx
  40119c:	48 c7 c6 09 1e 40 00 	mov    $0x401e09,%rsi
  4011a3:	bf 0b 00 00 00       	mov    $0xb,%edi
  4011a8:	e8 93 fb ff ff       	call   400d40 <signal@plt>
  4011ad:	48 c7 c6 b5 1d 40 00 	mov    $0x401db5,%rsi
  4011b4:	bf 07 00 00 00       	mov    $0x7,%edi
  4011b9:	e8 82 fb ff ff       	call   400d40 <signal@plt>
  4011be:	48 c7 c6 5d 1e 40 00 	mov    $0x401e5d,%rsi
  4011c5:	bf 04 00 00 00       	mov    $0x4,%edi
  4011ca:	e8 71 fb ff ff       	call   400d40 <signal@plt>
  4011cf:	83 3d 32 33 20 00 00 	cmpl   $0x0,0x203332(%rip)        # 604508 <is_checker>
  4011d6:	75 26                	jne    4011fe <main+0x70>
  4011d8:	48 8d 2d c6 1e 00 00 	lea    0x1ec6(%rip),%rbp        # 4030a5 <_IO_stdin_used+0x225>
  4011df:	48 8b 05 ba 32 20 00 	mov    0x2032ba(%rip),%rax        # 6044a0 <stdin@GLIBC_2.2.5>
  4011e6:	48 89 05 03 33 20 00 	mov    %rax,0x203303(%rip)        # 6044f0 <infile>
  4011ed:	41 bd 00 00 00 00    	mov    $0x0,%r13d
  4011f3:	41 be 00 00 00 00    	mov    $0x0,%r14d
  4011f9:	e9 8d 00 00 00       	jmp    40128b <main+0xfd>
  4011fe:	48 c7 c6 b1 1e 40 00 	mov    $0x401eb1,%rsi
  401205:	bf 0e 00 00 00       	mov    $0xe,%edi
  40120a:	e8 31 fb ff ff       	call   400d40 <signal@plt>
  40120f:	bf 05 00 00 00       	mov    $0x5,%edi
  401214:	e8 f7 fa ff ff       	call   400d10 <alarm@plt>
  401219:	48 8d 2d 8a 1e 00 00 	lea    0x1e8a(%rip),%rbp        # 4030aa <_IO_stdin_used+0x22a>
  401220:	eb bd                	jmp    4011df <main+0x51>
  401222:	48 8b 3b             	mov    (%rbx),%rdi
  401225:	e8 3d fd ff ff       	call   400f67 <usage>
  40122a:	48 8d 35 fc 20 00 00 	lea    0x20fc(%rip),%rsi        # 40332d <_IO_stdin_used+0x4ad>
  401231:	48 8b 3d 70 32 20 00 	mov    0x203270(%rip),%rdi        # 6044a8 <optarg@GLIBC_2.2.5>
  401238:	e8 b3 fb ff ff       	call   400df0 <fopen@plt>
  40123d:	48 89 05 ac 32 20 00 	mov    %rax,0x2032ac(%rip)        # 6044f0 <infile>
  401244:	48 85 c0             	test   %rax,%rax
  401247:	75 42                	jne    40128b <main+0xfd>
  401249:	48 8b 0d 58 32 20 00 	mov    0x203258(%rip),%rcx        # 6044a8 <optarg@GLIBC_2.2.5>
  401250:	48 8d 15 5b 1e 00 00 	lea    0x1e5b(%rip),%rdx        # 4030b2 <_IO_stdin_used+0x232>
  401257:	be 01 00 00 00       	mov    $0x1,%esi
  40125c:	48 8b 3d 5d 32 20 00 	mov    0x20325d(%rip),%rdi        # 6044c0 <stderr@GLIBC_2.2.5>
  401263:	e8 e8 fb ff ff       	call   400e50 <__fprintf_chk@plt>
  401268:	b8 01 00 00 00       	mov    $0x1,%eax
  40126d:	e9 d9 00 00 00       	jmp    40134b <main+0x1bd>
  401272:	ba 10 00 00 00       	mov    $0x10,%edx
  401277:	be 00 00 00 00       	mov    $0x0,%esi
  40127c:	48 8b 3d 25 32 20 00 	mov    0x203225(%rip),%rdi        # 6044a8 <optarg@GLIBC_2.2.5>
  401283:	e8 88 fb ff ff       	call   400e10 <strtoul@plt>
  401288:	41 89 c6             	mov    %eax,%r14d
  40128b:	48 89 ea             	mov    %rbp,%rdx
  40128e:	48 89 de             	mov    %rbx,%rsi
  401291:	44 89 e7             	mov    %r12d,%edi
  401294:	e8 67 fb ff ff       	call   400e00 <getopt@plt>
  401299:	3c ff                	cmp    $0xff,%al
  40129b:	74 62                	je     4012ff <main+0x171>
  40129d:	0f be d0             	movsbl %al,%edx
  4012a0:	83 e8 61             	sub    $0x61,%eax
  4012a3:	3c 10                	cmp    $0x10,%al
  4012a5:	77 3a                	ja     4012e1 <main+0x153>
  4012a7:	0f b6 c0             	movzbl %al,%eax
  4012aa:	48 8d 0d 3f 1e 00 00 	lea    0x1e3f(%rip),%rcx        # 4030f0 <_IO_stdin_used+0x270>
  4012b1:	48 63 04 81          	movslq (%rcx,%rax,4),%rax
  4012b5:	48 01 c8             	add    %rcx,%rax
  4012b8:	ff e0                	jmp    *%rax
  4012ba:	ba 0a 00 00 00       	mov    $0xa,%edx
  4012bf:	be 00 00 00 00       	mov    $0x0,%esi
  4012c4:	48 8b 3d dd 31 20 00 	mov    0x2031dd(%rip),%rdi        # 6044a8 <optarg@GLIBC_2.2.5>
  4012cb:	e8 a0 fa ff ff       	call   400d70 <strtol@plt>
  4012d0:	41 89 c5             	mov    %eax,%r13d
  4012d3:	eb b6                	jmp    40128b <main+0xfd>
  4012d5:	c7 05 a9 31 20 00 00 	movl   $0x0,0x2031a9(%rip)        # 604488 <notify>
  4012dc:	00 00 00 
  4012df:	eb aa                	jmp    40128b <main+0xfd>
  4012e1:	48 8d 35 e7 1d 00 00 	lea    0x1de7(%rip),%rsi        # 4030cf <_IO_stdin_used+0x24f>
  4012e8:	bf 01 00 00 00       	mov    $0x1,%edi
  4012ed:	b8 00 00 00 00       	mov    $0x0,%eax
  4012f2:	e8 e9 fa ff ff       	call   400de0 <__printf_chk@plt>
  4012f7:	48 8b 3b             	mov    (%rbx),%rdi
  4012fa:	e8 68 fc ff ff       	call   400f67 <usage>
  4012ff:	be 00 00 00 00       	mov    $0x0,%esi
  401304:	44 89 ef             	mov    %r13d,%edi
  401307:	e8 f7 fc ff ff       	call   401003 <initialize_target>
  40130c:	83 3d f5 31 20 00 00 	cmpl   $0x0,0x2031f5(%rip)        # 604508 <is_checker>
  401313:	74 09                	je     40131e <main+0x190>
  401315:	44 39 35 e4 31 20 00 	cmp    %r14d,0x2031e4(%rip)        # 604500 <authkey>
  40131c:	75 36                	jne    401354 <main+0x1c6>
  40131e:	8b 15 e0 31 20 00    	mov    0x2031e0(%rip),%edx        # 604504 <cookie>
  401324:	48 8d 35 b7 1d 00 00 	lea    0x1db7(%rip),%rsi        # 4030e2 <_IO_stdin_used+0x262>
  40132b:	bf 01 00 00 00       	mov    $0x1,%edi
  401330:	b8 00 00 00 00       	mov    $0x0,%eax
  401335:	e8 a6 fa ff ff       	call   400de0 <__printf_chk@plt>
  40133a:	48 8b 3d 3f 31 20 00 	mov    0x20313f(%rip),%rdi        # 604480 <buf_offset>
  401341:	e8 77 0c 00 00       	call   401fbd <stable_launch>
  401346:	b8 00 00 00 00       	mov    $0x0,%eax
  40134b:	5b                   	pop    %rbx
  40134c:	5d                   	pop    %rbp
  40134d:	41 5c                	pop    %r12
  40134f:	41 5d                	pop    %r13
  401351:	41 5e                	pop    %r14
  401353:	c3                   	ret
  401354:	44 89 f2             	mov    %r14d,%edx
  401357:	48 8d 35 aa 1c 00 00 	lea    0x1caa(%rip),%rsi        # 403008 <_IO_stdin_used+0x188>
  40135e:	bf 01 00 00 00       	mov    $0x1,%edi
  401363:	b8 00 00 00 00       	mov    $0x0,%eax
  401368:	e8 73 fa ff ff       	call   400de0 <__printf_chk@plt>
  40136d:	b8 00 00 00 00       	mov    $0x0,%eax
  401372:	e8 9e 06 00 00       	call   401a15 <check_fail>
  401377:	eb a5                	jmp    40131e <main+0x190>

0000000000401379 <scramble>:
  401379:	48 83 ec 38          	sub    $0x38,%rsp
  40137d:	64 48 8b 04 25 28 00 	mov    %fs:0x28,%rax
  401384:	00 00 
  401386:	48 89 44 24 28       	mov    %rax,0x28(%rsp)
  40138b:	31 c0                	xor    %eax,%eax
  40138d:	eb 10                	jmp    40139f <scramble+0x26>
  40138f:	69 d0 7f 79 00 00    	imul   $0x797f,%eax,%edx
  401395:	01 fa                	add    %edi,%edx
  401397:	89 c1                	mov    %eax,%ecx
  401399:	89 14 8c             	mov    %edx,(%rsp,%rcx,4)
  40139c:	83 c0 01             	add    $0x1,%eax
  40139f:	83 f8 09             	cmp    $0x9,%eax
  4013a2:	76 eb                	jbe    40138f <scramble+0x16>
  4013a4:	8b 44 24 14          	mov    0x14(%rsp),%eax
  4013a8:	69 c0 44 a6 00 00    	imul   $0xa644,%eax,%eax
  4013ae:	89 44 24 14          	mov    %eax,0x14(%rsp)
  4013b2:	8b 44 24 20          	mov    0x20(%rsp),%eax
  4013b6:	69 c0 d5 50 00 00    	imul   $0x50d5,%eax,%eax
  4013bc:	89 44 24 20          	mov    %eax,0x20(%rsp)
  4013c0:	8b 44 24 1c          	mov    0x1c(%rsp),%eax
  4013c4:	69 c0 00 3a 00 00    	imul   $0x3a00,%eax,%eax
  4013ca:	89 44 24 1c          	mov    %eax,0x1c(%rsp)
  4013ce:	8b 44 24 1c          	mov    0x1c(%rsp),%eax
  4013d2:	69 c0 29 9f 00 00    	imul   $0x9f29,%eax,%eax
  4013d8:	89 44 24 1c          	mov    %eax,0x1c(%rsp)
  4013dc:	8b 44 24 24          	mov    0x24(%rsp),%eax
  4013e0:	69 c0 96 16 00 00    	imul   $0x1696,%eax,%eax
  4013e6:	89 44 24 24          	mov    %eax,0x24(%rsp)
  4013ea:	8b 44 24 0c          	mov    0xc(%rsp),%eax
  4013ee:	69 c0 4d 29 00 00    	imul   $0x294d,%eax,%eax
  4013f4:	89 44 24 0c          	mov    %eax,0xc(%rsp)
  4013f8:	8b 44 24 24          	mov    0x24(%rsp),%eax
  4013fc:	69 c0 7d c8 00 00    	imul   $0xc87d,%eax,%eax
  401402:	89 44 24 24          	mov    %eax,0x24(%rsp)
  401406:	8b 44 24 0c          	mov    0xc(%rsp),%eax
  40140a:	69 c0 7e 90 00 00    	imul   $0x907e,%eax,%eax
  401410:	89 44 24 0c          	mov    %eax,0xc(%rsp)
  401414:	8b 04 24             	mov    (%rsp),%eax
  401417:	69 c0 5f c3 00 00    	imul   $0xc35f,%eax,%eax
  40141d:	89 04 24             	mov    %eax,(%rsp)
  401420:	8b 44 24 08          	mov    0x8(%rsp),%eax
  401424:	69 c0 32 43 00 00    	imul   $0x4332,%eax,%eax
  40142a:	89 44 24 08          	mov    %eax,0x8(%rsp)
  40142e:	8b 44 24 14          	mov    0x14(%rsp),%eax
  401432:	69 c0 d9 3f 00 00    	imul   $0x3fd9,%eax,%eax
  401438:	89 44 24 14          	mov    %eax,0x14(%rsp)
  40143c:	8b 44 24 04          	mov    0x4(%rsp),%eax
  401440:	69 c0 d7 49 00 00    	imul   $0x49d7,%eax,%eax
  401446:	89 44 24 04          	mov    %eax,0x4(%rsp)
  40144a:	8b 04 24             	mov    (%rsp),%eax
  40144d:	69 c0 7a 8c 00 00    	imul   $0x8c7a,%eax,%eax
  401453:	89 04 24             	mov    %eax,(%rsp)
  401456:	8b 44 24 0c          	mov    0xc(%rsp),%eax
  40145a:	69 c0 f8 0e 00 00    	imul   $0xef8,%eax,%eax
  401460:	89 44 24 0c          	mov    %eax,0xc(%rsp)
  401464:	8b 44 24 18          	mov    0x18(%rsp),%eax
  401468:	69 c0 2d 12 00 00    	imul   $0x122d,%eax,%eax
  40146e:	89 44 24 18          	mov    %eax,0x18(%rsp)
  401472:	8b 44 24 08          	mov    0x8(%rsp),%eax
  401476:	69 c0 16 c6 00 00    	imul   $0xc616,%eax,%eax
  40147c:	89 44 24 08          	mov    %eax,0x8(%rsp)
  401480:	8b 44 24 18          	mov    0x18(%rsp),%eax
  401484:	69 c0 41 48 00 00    	imul   $0x4841,%eax,%eax
  40148a:	89 44 24 18          	mov    %eax,0x18(%rsp)
  40148e:	8b 44 24 1c          	mov    0x1c(%rsp),%eax
  401492:	69 c0 44 92 00 00    	imul   $0x9244,%eax,%eax
  401498:	89 44 24 1c          	mov    %eax,0x1c(%rsp)
  40149c:	8b 44 24 1c          	mov    0x1c(%rsp),%eax
  4014a0:	69 c0 19 5f 00 00    	imul   $0x5f19,%eax,%eax
  4014a6:	89 44 24 1c          	mov    %eax,0x1c(%rsp)
  4014aa:	8b 44 24 1c          	mov    0x1c(%rsp),%eax
  4014ae:	69 c0 8d 3a 00 00    	imul   $0x3a8d,%eax,%eax
  4014b4:	89 44 24 1c          	mov    %eax,0x1c(%rsp)
  4014b8:	8b 44 24 18          	mov    0x18(%rsp),%eax
  4014bc:	69 c0 30 4a 00 00    	imul   $0x4a30,%eax,%eax
  4014c2:	89 44 24 18          	mov    %eax,0x18(%rsp)
  4014c6:	8b 44 24 14          	mov    0x14(%rsp),%eax
  4014ca:	69 c0 74 f2 00 00    	imul   $0xf274,%eax,%eax
  4014d0:	89 44 24 14          	mov    %eax,0x14(%rsp)
  4014d4:	8b 44 24 10          	mov    0x10(%rsp),%eax
  4014d8:	69 c0 04 82 00 00    	imul   $0x8204,%eax,%eax
  4014de:	89 44 24 10          	mov    %eax,0x10(%rsp)
  4014e2:	8b 44 24 14          	mov    0x14(%rsp),%eax
  4014e6:	69 c0 82 d5 00 00    	imul   $0xd582,%eax,%eax
  4014ec:	89 44 24 14          	mov    %eax,0x14(%rsp)
  4014f0:	8b 44 24 14          	mov    0x14(%rsp),%eax
  4014f4:	69 c0 cc 01 00 00    	imul   $0x1cc,%eax,%eax
  4014fa:	89 44 24 14          	mov    %eax,0x14(%rsp)
  4014fe:	8b 44 24 18          	mov    0x18(%rsp),%eax
  401502:	69 c0 77 0d 00 00    	imul   $0xd77,%eax,%eax
  401508:	89 44 24 18          	mov    %eax,0x18(%rsp)
  40150c:	8b 44 24 18          	mov    0x18(%rsp),%eax
  401510:	69 c0 50 d8 00 00    	imul   $0xd850,%eax,%eax
  401516:	89 44 24 18          	mov    %eax,0x18(%rsp)
  40151a:	8b 44 24 0c          	mov    0xc(%rsp),%eax
  40151e:	69 c0 45 02 00 00    	imul   $0x245,%eax,%eax
  401524:	89 44 24 0c          	mov    %eax,0xc(%rsp)
  401528:	8b 44 24 14          	mov    0x14(%rsp),%eax
  40152c:	69 c0 5c b6 00 00    	imul   $0xb65c,%eax,%eax
  401532:	89 44 24 14          	mov    %eax,0x14(%rsp)
  401536:	8b 44 24 08          	mov    0x8(%rsp),%eax
  40153a:	69 c0 62 b1 00 00    	imul   $0xb162,%eax,%eax
  401540:	89 44 24 08          	mov    %eax,0x8(%rsp)
  401544:	8b 44 24 04          	mov    0x4(%rsp),%eax
  401548:	69 c0 2f b8 00 00    	imul   $0xb82f,%eax,%eax
  40154e:	89 44 24 04          	mov    %eax,0x4(%rsp)
  401552:	8b 44 24 18          	mov    0x18(%rsp),%eax
  401556:	69 c0 fc 80 00 00    	imul   $0x80fc,%eax,%eax
  40155c:	89 44 24 18          	mov    %eax,0x18(%rsp)
  401560:	8b 44 24 20          	mov    0x20(%rsp),%eax
  401564:	69 c0 65 8e 00 00    	imul   $0x8e65,%eax,%eax
  40156a:	89 44 24 20          	mov    %eax,0x20(%rsp)
  40156e:	8b 04 24             	mov    (%rsp),%eax
  401571:	69 c0 b2 82 00 00    	imul   $0x82b2,%eax,%eax
  401577:	89 04 24             	mov    %eax,(%rsp)
  40157a:	8b 44 24 0c          	mov    0xc(%rsp),%eax
  40157e:	69 c0 ad 44 00 00    	imul   $0x44ad,%eax,%eax
  401584:	89 44 24 0c          	mov    %eax,0xc(%rsp)
  401588:	8b 44 24 14          	mov    0x14(%rsp),%eax
  40158c:	69 c0 2e 63 00 00    	imul   $0x632e,%eax,%eax
  401592:	89 44 24 14          	mov    %eax,0x14(%rsp)
  401596:	8b 04 24             	mov    (%rsp),%eax
  401599:	69 c0 19 21 00 00    	imul   $0x2119,%eax,%eax
  40159f:	89 04 24             	mov    %eax,(%rsp)
  4015a2:	8b 44 24 1c          	mov    0x1c(%rsp),%eax
  4015a6:	69 c0 8a a1 00 00    	imul   $0xa18a,%eax,%eax
  4015ac:	89 44 24 1c          	mov    %eax,0x1c(%rsp)
  4015b0:	8b 44 24 10          	mov    0x10(%rsp),%eax
  4015b4:	69 c0 95 d8 00 00    	imul   $0xd895,%eax,%eax
  4015ba:	89 44 24 10          	mov    %eax,0x10(%rsp)
  4015be:	8b 44 24 0c          	mov    0xc(%rsp),%eax
  4015c2:	69 c0 81 e8 00 00    	imul   $0xe881,%eax,%eax
  4015c8:	89 44 24 0c          	mov    %eax,0xc(%rsp)
  4015cc:	8b 44 24 10          	mov    0x10(%rsp),%eax
  4015d0:	69 c0 c1 8f 00 00    	imul   $0x8fc1,%eax,%eax
  4015d6:	89 44 24 10          	mov    %eax,0x10(%rsp)
  4015da:	8b 44 24 08          	mov    0x8(%rsp),%eax
  4015de:	69 c0 07 1c 00 00    	imul   $0x1c07,%eax,%eax
  4015e4:	89 44 24 08          	mov    %eax,0x8(%rsp)
  4015e8:	8b 04 24             	mov    (%rsp),%eax
  4015eb:	69 c0 47 4d 00 00    	imul   $0x4d47,%eax,%eax
  4015f1:	89 04 24             	mov    %eax,(%rsp)
  4015f4:	8b 44 24 04          	mov    0x4(%rsp),%eax
  4015f8:	69 c0 dd cc 00 00    	imul   $0xccdd,%eax,%eax
  4015fe:	89 44 24 04          	mov    %eax,0x4(%rsp)
  401602:	8b 44 24 0c          	mov    0xc(%rsp),%eax
  401606:	69 c0 89 2f 00 00    	imul   $0x2f89,%eax,%eax
  40160c:	89 44 24 0c          	mov    %eax,0xc(%rsp)
  401610:	8b 04 24             	mov    (%rsp),%eax
  401613:	69 c0 2d cc 00 00    	imul   $0xcc2d,%eax,%eax
  401619:	89 04 24             	mov    %eax,(%rsp)
  40161c:	8b 44 24 04          	mov    0x4(%rsp),%eax
  401620:	69 c0 b8 f5 00 00    	imul   $0xf5b8,%eax,%eax
  401626:	89 44 24 04          	mov    %eax,0x4(%rsp)
  40162a:	8b 44 24 14          	mov    0x14(%rsp),%eax
  40162e:	69 c0 29 e8 00 00    	imul   $0xe829,%eax,%eax
  401634:	89 44 24 14          	mov    %eax,0x14(%rsp)
  401638:	8b 44 24 14          	mov    0x14(%rsp),%eax
  40163c:	69 c0 69 60 00 00    	imul   $0x6069,%eax,%eax
  401642:	89 44 24 14          	mov    %eax,0x14(%rsp)
  401646:	8b 44 24 20          	mov    0x20(%rsp),%eax
  40164a:	69 c0 9c 71 00 00    	imul   $0x719c,%eax,%eax
  401650:	89 44 24 20          	mov    %eax,0x20(%rsp)
  401654:	8b 44 24 20          	mov    0x20(%rsp),%eax
  401658:	69 c0 1a 28 00 00    	imul   $0x281a,%eax,%eax
  40165e:	89 44 24 20          	mov    %eax,0x20(%rsp)
  401662:	8b 44 24 24          	mov    0x24(%rsp),%eax
  401666:	69 c0 f3 33 00 00    	imul   $0x33f3,%eax,%eax
  40166c:	89 44 24 24          	mov    %eax,0x24(%rsp)
  401670:	8b 44 24 1c          	mov    0x1c(%rsp),%eax
  401674:	69 c0 6c 2a 00 00    	imul   $0x2a6c,%eax,%eax
  40167a:	89 44 24 1c          	mov    %eax,0x1c(%rsp)
  40167e:	8b 44 24 1c          	mov    0x1c(%rsp),%eax
  401682:	69 c0 51 ec 00 00    	imul   $0xec51,%eax,%eax
  401688:	89 44 24 1c          	mov    %eax,0x1c(%rsp)
  40168c:	8b 44 24 18          	mov    0x18(%rsp),%eax
  401690:	69 c0 8a 4c 00 00    	imul   $0x4c8a,%eax,%eax
  401696:	89 44 24 18          	mov    %eax,0x18(%rsp)
  40169a:	8b 44 24 0c          	mov    0xc(%rsp),%eax
  40169e:	69 c0 63 dd 00 00    	imul   $0xdd63,%eax,%eax
  4016a4:	89 44 24 0c          	mov    %eax,0xc(%rsp)
  4016a8:	8b 44 24 08          	mov    0x8(%rsp),%eax
  4016ac:	69 c0 ca ca 00 00    	imul   $0xcaca,%eax,%eax
  4016b2:	89 44 24 08          	mov    %eax,0x8(%rsp)
  4016b6:	8b 44 24 14          	mov    0x14(%rsp),%eax
  4016ba:	69 c0 5d 44 00 00    	imul   $0x445d,%eax,%eax
  4016c0:	89 44 24 14          	mov    %eax,0x14(%rsp)
  4016c4:	8b 44 24 10          	mov    0x10(%rsp),%eax
  4016c8:	69 c0 b7 17 00 00    	imul   $0x17b7,%eax,%eax
  4016ce:	89 44 24 10          	mov    %eax,0x10(%rsp)
  4016d2:	8b 44 24 08          	mov    0x8(%rsp),%eax
  4016d6:	69 c0 b5 1b 00 00    	imul   $0x1bb5,%eax,%eax
  4016dc:	89 44 24 08          	mov    %eax,0x8(%rsp)
  4016e0:	8b 44 24 10          	mov    0x10(%rsp),%eax
  4016e4:	69 c0 7a 8f 00 00    	imul   $0x8f7a,%eax,%eax
  4016ea:	89 44 24 10          	mov    %eax,0x10(%rsp)
  4016ee:	8b 44 24 18          	mov    0x18(%rsp),%eax
  4016f2:	69 c0 f9 2e 00 00    	imul   $0x2ef9,%eax,%eax
  4016f8:	89 44 24 18          	mov    %eax,0x18(%rsp)
  4016fc:	8b 44 24 10          	mov    0x10(%rsp),%eax
  401700:	69 c0 0c 35 00 00    	imul   $0x350c,%eax,%eax
  401706:	89 44 24 10          	mov    %eax,0x10(%rsp)
  40170a:	8b 44 24 04          	mov    0x4(%rsp),%eax
  40170e:	69 c0 50 09 00 00    	imul   $0x950,%eax,%eax
  401714:	89 44 24 04          	mov    %eax,0x4(%rsp)
  401718:	8b 44 24 08          	mov    0x8(%rsp),%eax
  40171c:	69 c0 fd 81 00 00    	imul   $0x81fd,%eax,%eax
  401722:	89 44 24 08          	mov    %eax,0x8(%rsp)
  401726:	8b 44 24 04          	mov    0x4(%rsp),%eax
  40172a:	69 c0 8c 3a 00 00    	imul   $0x3a8c,%eax,%eax
  401730:	89 44 24 04          	mov    %eax,0x4(%rsp)
  401734:	8b 44 24 14          	mov    0x14(%rsp),%eax
  401738:	69 c0 b6 4f 00 00    	imul   $0x4fb6,%eax,%eax
  40173e:	89 44 24 14          	mov    %eax,0x14(%rsp)
  401742:	8b 04 24             	mov    (%rsp),%eax
  401745:	69 c0 4a f3 00 00    	imul   $0xf34a,%eax,%eax
  40174b:	89 04 24             	mov    %eax,(%rsp)
  40174e:	8b 44 24 04          	mov    0x4(%rsp),%eax
  401752:	69 c0 fd 43 00 00    	imul   $0x43fd,%eax,%eax
  401758:	89 44 24 04          	mov    %eax,0x4(%rsp)
  40175c:	8b 44 24 1c          	mov    0x1c(%rsp),%eax
  401760:	69 c0 24 7d 00 00    	imul   $0x7d24,%eax,%eax
  401766:	89 44 24 1c          	mov    %eax,0x1c(%rsp)
  40176a:	8b 44 24 24          	mov    0x24(%rsp),%eax
  40176e:	69 c0 6d b4 00 00    	imul   $0xb46d,%eax,%eax
  401774:	89 44 24 24          	mov    %eax,0x24(%rsp)
  401778:	ba 00 00 00 00       	mov    $0x0,%edx
  40177d:	b8 00 00 00 00       	mov    $0x0,%eax
  401782:	eb 0a                	jmp    40178e <scramble+0x415>
  401784:	89 d1                	mov    %edx,%ecx
  401786:	8b 0c 8c             	mov    (%rsp,%rcx,4),%ecx
  401789:	01 c8                	add    %ecx,%eax
  40178b:	83 c2 01             	add    $0x1,%edx
  40178e:	83 fa 09             	cmp    $0x9,%edx
  401791:	76 f1                	jbe    401784 <scramble+0x40b>
  401793:	48 8b 74 24 28       	mov    0x28(%rsp),%rsi
  401798:	64 48 33 34 25 28 00 	xor    %fs:0x28,%rsi
  40179f:	00 00 
  4017a1:	75 05                	jne    4017a8 <scramble+0x42f>
  4017a3:	48 83 c4 38          	add    $0x38,%rsp
  4017a7:	c3                   	ret
  4017a8:	e8 33 f5 ff ff       	call   400ce0 <__stack_chk_fail@plt>

00000000004017ad <getbuf>:
  4017ad:	48 83 ec 28          	sub    $0x28,%rsp
  4017b1:	48 89 e7             	mov    %rsp,%rdi
  4017b4:	e8 94 02 00 00       	call   401a4d <Gets>
  4017b9:	b8 01 00 00 00       	mov    $0x1,%eax
  4017be:	48 83 c4 28          	add    $0x28,%rsp
  4017c2:	c3                   	ret

00000000004017c3 <touch1>:
  4017c3:	48 83 ec 08          	sub    $0x8,%rsp
  4017c7:	c7 05 2b 2d 20 00 01 	movl   $0x1,0x202d2b(%rip)        # 6044fc <vlevel>
  4017ce:	00 00 00 
  4017d1:	48 8d 3d a9 19 00 00 	lea    0x19a9(%rip),%rdi        # 403181 <_IO_stdin_used+0x301>
  4017d8:	e8 e3 f4 ff ff       	call   400cc0 <puts@plt>
  4017dd:	bf 01 00 00 00       	mov    $0x1,%edi
  4017e2:	e8 d6 04 00 00       	call   401cbd <validate>
  4017e7:	bf 00 00 00 00       	mov    $0x0,%edi
  4017ec:	e8 3f f6 ff ff       	call   400e30 <exit@plt>

00000000004017f1 <touch2>:
  4017f1:	48 83 ec 08          	sub    $0x8,%rsp
  4017f5:	89 fa                	mov    %edi,%edx
  4017f7:	c7 05 fb 2c 20 00 02 	movl   $0x2,0x202cfb(%rip)        # 6044fc <vlevel>
  4017fe:	00 00 00 
  401801:	39 3d fd 2c 20 00    	cmp    %edi,0x202cfd(%rip)        # 604504 <cookie>
  401807:	74 2a                	je     401833 <touch2+0x42>
  401809:	48 8d 35 c0 19 00 00 	lea    0x19c0(%rip),%rsi        # 4031d0 <_IO_stdin_used+0x350>
  401810:	bf 01 00 00 00       	mov    $0x1,%edi
  401815:	b8 00 00 00 00       	mov    $0x0,%eax
  40181a:	e8 c1 f5 ff ff       	call   400de0 <__printf_chk@plt>
  40181f:	bf 02 00 00 00       	mov    $0x2,%edi
  401824:	e8 64 05 00 00       	call   401d8d <fail>
  401829:	bf 00 00 00 00       	mov    $0x0,%edi
  40182e:	e8 fd f5 ff ff       	call   400e30 <exit@plt>
  401833:	48 8d 35 6e 19 00 00 	lea    0x196e(%rip),%rsi        # 4031a8 <_IO_stdin_used+0x328>
  40183a:	bf 01 00 00 00       	mov    $0x1,%edi
  40183f:	b8 00 00 00 00       	mov    $0x0,%eax
  401844:	e8 97 f5 ff ff       	call   400de0 <__printf_chk@plt>
  401849:	bf 02 00 00 00       	mov    $0x2,%edi
  40184e:	e8 6a 04 00 00       	call   401cbd <validate>
  401853:	eb d4                	jmp    401829 <touch2+0x38>

0000000000401855 <hexmatch>:
  401855:	41 54                	push   %r12
  401857:	55                   	push   %rbp
  401858:	53                   	push   %rbx
  401859:	48 83 c4 80          	add    $0xffffffffffffff80,%rsp
  40185d:	89 fd                	mov    %edi,%ebp
  40185f:	48 89 f3             	mov    %rsi,%rbx
  401862:	64 48 8b 04 25 28 00 	mov    %fs:0x28,%rax
  401869:	00 00 
  40186b:	48 89 44 24 78       	mov    %rax,0x78(%rsp)
  401870:	31 c0                	xor    %eax,%eax
  401872:	e8 29 f5 ff ff       	call   400da0 <random@plt>
  401877:	48 89 c1             	mov    %rax,%rcx
  40187a:	48 ba 0b d7 a3 70 3d 	movabs $0xa3d70a3d70a3d70b,%rdx
  401881:	0a d7 a3 
  401884:	48 f7 ea             	imul   %rdx
  401887:	48 01 ca             	add    %rcx,%rdx
  40188a:	48 c1 fa 06          	sar    $0x6,%rdx
  40188e:	48 89 c8             	mov    %rcx,%rax
  401891:	48 c1 f8 3f          	sar    $0x3f,%rax
  401895:	48 29 c2             	sub    %rax,%rdx
  401898:	48 8d 04 92          	lea    (%rdx,%rdx,4),%rax
  40189c:	48 8d 14 80          	lea    (%rax,%rax,4),%rdx
  4018a0:	48 8d 04 95 00 00 00 	lea    0x0(,%rdx,4),%rax
  4018a7:	00 
  4018a8:	48 29 c1             	sub    %rax,%rcx
  4018ab:	4c 8d 24 0c          	lea    (%rsp,%rcx,1),%r12
  4018af:	41 89 e8             	mov    %ebp,%r8d
  4018b2:	48 8d 0d e5 18 00 00 	lea    0x18e5(%rip),%rcx        # 40319e <_IO_stdin_used+0x31e>
  4018b9:	48 c7 c2 ff ff ff ff 	mov    $0xffffffffffffffff,%rdx
  4018c0:	be 01 00 00 00       	mov    $0x1,%esi
  4018c5:	4c 89 e7             	mov    %r12,%rdi
  4018c8:	b8 00 00 00 00       	mov    $0x0,%eax
  4018cd:	e8 8e f5 ff ff       	call   400e60 <__sprintf_chk@plt>
  4018d2:	ba 09 00 00 00       	mov    $0x9,%edx
  4018d7:	4c 89 e6             	mov    %r12,%rsi
  4018da:	48 89 df             	mov    %rbx,%rdi
  4018dd:	e8 be f3 ff ff       	call   400ca0 <strncmp@plt>
  4018e2:	85 c0                	test   %eax,%eax
  4018e4:	0f 94 c0             	sete   %al
  4018e7:	48 8b 5c 24 78       	mov    0x78(%rsp),%rbx
  4018ec:	64 48 33 1c 25 28 00 	xor    %fs:0x28,%rbx
  4018f3:	00 00 
  4018f5:	75 0c                	jne    401903 <hexmatch+0xae>
  4018f7:	0f b6 c0             	movzbl %al,%eax
  4018fa:	48 83 ec 80          	sub    $0xffffffffffffff80,%rsp
  4018fe:	5b                   	pop    %rbx
  4018ff:	5d                   	pop    %rbp
  401900:	41 5c                	pop    %r12
  401902:	c3                   	ret
  401903:	e8 d8 f3 ff ff       	call   400ce0 <__stack_chk_fail@plt>

0000000000401908 <touch3>:
  401908:	53                   	push   %rbx
  401909:	48 89 fb             	mov    %rdi,%rbx
  40190c:	c7 05 e6 2b 20 00 03 	movl   $0x3,0x202be6(%rip)        # 6044fc <vlevel>
  401913:	00 00 00 
  401916:	48 89 fe             	mov    %rdi,%rsi
  401919:	8b 3d e5 2b 20 00    	mov    0x202be5(%rip),%edi        # 604504 <cookie>
  40191f:	e8 31 ff ff ff       	call   401855 <hexmatch>
  401924:	85 c0                	test   %eax,%eax
  401926:	74 2d                	je     401955 <touch3+0x4d>
  401928:	48 89 da             	mov    %rbx,%rdx
  40192b:	48 8d 35 c6 18 00 00 	lea    0x18c6(%rip),%rsi        # 4031f8 <_IO_stdin_used+0x378>
  401932:	bf 01 00 00 00       	mov    $0x1,%edi
  401937:	b8 00 00 00 00       	mov    $0x0,%eax
  40193c:	e8 9f f4 ff ff       	call   400de0 <__printf_chk@plt>
  401941:	bf 03 00 00 00       	mov    $0x3,%edi
  401946:	e8 72 03 00 00       	call   401cbd <validate>
  40194b:	bf 00 00 00 00       	mov    $0x0,%edi
  401950:	e8 db f4 ff ff       	call   400e30 <exit@plt>
  401955:	48 89 da             	mov    %rbx,%rdx
  401958:	48 8d 35 c1 18 00 00 	lea    0x18c1(%rip),%rsi        # 403220 <_IO_stdin_used+0x3a0>
  40195f:	bf 01 00 00 00       	mov    $0x1,%edi
  401964:	b8 00 00 00 00       	mov    $0x0,%eax
  401969:	e8 72 f4 ff ff       	call   400de0 <__printf_chk@plt>
  40196e:	bf 03 00 00 00       	mov    $0x3,%edi
  401973:	e8 15 04 00 00       	call   401d8d <fail>
  401978:	eb d1                	jmp    40194b <touch3+0x43>

000000000040197a <test>:
  40197a:	48 83 ec 08          	sub    $0x8,%rsp
  40197e:	b8 00 00 00 00       	mov    $0x0,%eax
  401983:	e8 25 fe ff ff       	call   4017ad <getbuf>
  401988:	89 c2                	mov    %eax,%edx
  40198a:	48 8d 35 b7 18 00 00 	lea    0x18b7(%rip),%rsi        # 403248 <_IO_stdin_used+0x3c8>
  401991:	bf 01 00 00 00       	mov    $0x1,%edi
  401996:	b8 00 00 00 00       	mov    $0x0,%eax
  40199b:	e8 40 f4 ff ff       	call   400de0 <__printf_chk@plt>
  4019a0:	48 83 c4 08          	add    $0x8,%rsp
  4019a4:	c3                   	ret

00000000004019a5 <save_char>:
  4019a5:	8b 05 79 37 20 00    	mov    0x203779(%rip),%eax        # 605124 <gets_cnt>
  4019ab:	3d ff 03 00 00       	cmp    $0x3ff,%eax
  4019b0:	7f 4a                	jg     4019fc <save_char+0x57>
  4019b2:	89 f9                	mov    %edi,%ecx
  4019b4:	c0 e9 04             	shr    $0x4,%cl
  4019b7:	8d 14 40             	lea    (%rax,%rax,2),%edx
  4019ba:	4c 8d 05 af 1b 00 00 	lea    0x1baf(%rip),%r8        # 403570 <trans_char>
  4019c1:	83 e1 0f             	and    $0xf,%ecx
  4019c4:	45 0f b6 0c 08       	movzbl (%r8,%rcx,1),%r9d
  4019c9:	48 8d 0d 50 2b 20 00 	lea    0x202b50(%rip),%rcx        # 604520 <gets_buf>
  4019d0:	48 63 f2             	movslq %edx,%rsi
  4019d3:	44 88 0c 31          	mov    %r9b,(%rcx,%rsi,1)
  4019d7:	8d 72 01             	lea    0x1(%rdx),%esi
  4019da:	83 e7 0f             	and    $0xf,%edi
  4019dd:	41 0f b6 3c 38       	movzbl (%r8,%rdi,1),%edi
  4019e2:	48 63 f6             	movslq %esi,%rsi
  4019e5:	40 88 3c 31          	mov    %dil,(%rcx,%rsi,1)
  4019e9:	83 c2 02             	add    $0x2,%edx
  4019ec:	48 63 d2             	movslq %edx,%rdx
  4019ef:	c6 04 11 20          	movb   $0x20,(%rcx,%rdx,1)
  4019f3:	83 c0 01             	add    $0x1,%eax
  4019f6:	89 05 28 37 20 00    	mov    %eax,0x203728(%rip)        # 605124 <gets_cnt>
  4019fc:	f3 c3                	repz ret

00000000004019fe <save_term>:
  4019fe:	8b 05 20 37 20 00    	mov    0x203720(%rip),%eax        # 605124 <gets_cnt>
  401a04:	8d 04 40             	lea    (%rax,%rax,2),%eax
  401a07:	48 98                	cltq
  401a09:	48 8d 15 10 2b 20 00 	lea    0x202b10(%rip),%rdx        # 604520 <gets_buf>
  401a10:	c6 04 02 00          	movb   $0x0,(%rdx,%rax,1)
  401a14:	c3                   	ret

0000000000401a15 <check_fail>:
  401a15:	48 83 ec 08          	sub    $0x8,%rsp
  401a19:	0f be 15 08 37 20 00 	movsbl 0x203708(%rip),%edx        # 605128 <target_prefix>
  401a20:	4c 8d 05 f9 2a 20 00 	lea    0x202af9(%rip),%r8        # 604520 <gets_buf>
  401a27:	8b 0d cb 2a 20 00    	mov    0x202acb(%rip),%ecx        # 6044f8 <check_level>
  401a2d:	48 8d 35 37 18 00 00 	lea    0x1837(%rip),%rsi        # 40326b <_IO_stdin_used+0x3eb>
  401a34:	bf 01 00 00 00       	mov    $0x1,%edi
  401a39:	b8 00 00 00 00       	mov    $0x0,%eax
  401a3e:	e8 9d f3 ff ff       	call   400de0 <__printf_chk@plt>
  401a43:	bf 01 00 00 00       	mov    $0x1,%edi
  401a48:	e8 e3 f3 ff ff       	call   400e30 <exit@plt>

0000000000401a4d <Gets>:
  401a4d:	41 54                	push   %r12
  401a4f:	55                   	push   %rbp
  401a50:	53                   	push   %rbx
  401a51:	49 89 fc             	mov    %rdi,%r12
  401a54:	c7 05 c6 36 20 00 00 	movl   $0x0,0x2036c6(%rip)        # 605124 <gets_cnt>
  401a5b:	00 00 00 
  401a5e:	48 89 fb             	mov    %rdi,%rbx
  401a61:	eb 11                	jmp    401a74 <Gets+0x27>
  401a63:	48 8d 6b 01          	lea    0x1(%rbx),%rbp
  401a67:	88 03                	mov    %al,(%rbx)
  401a69:	0f b6 f8             	movzbl %al,%edi
  401a6c:	e8 34 ff ff ff       	call   4019a5 <save_char>
  401a71:	48 89 eb             	mov    %rbp,%rbx
  401a74:	48 8b 3d 75 2a 20 00 	mov    0x202a75(%rip),%rdi        # 6044f0 <infile>
  401a7b:	e8 30 f3 ff ff       	call   400db0 <_IO_getc@plt>
  401a80:	83 f8 ff             	cmp    $0xffffffff,%eax
  401a83:	74 05                	je     401a8a <Gets+0x3d>
  401a85:	83 f8 0a             	cmp    $0xa,%eax
  401a88:	75 d9                	jne    401a63 <Gets+0x16>
  401a8a:	c6 03 00             	movb   $0x0,(%rbx)
  401a8d:	b8 00 00 00 00       	mov    $0x0,%eax
  401a92:	e8 67 ff ff ff       	call   4019fe <save_term>
  401a97:	4c 89 e0             	mov    %r12,%rax
  401a9a:	5b                   	pop    %rbx
  401a9b:	5d                   	pop    %rbp
  401a9c:	41 5c                	pop    %r12
  401a9e:	c3                   	ret

0000000000401a9f <notify_server>:
  401a9f:	55                   	push   %rbp
  401aa0:	53                   	push   %rbx
  401aa1:	48 81 ec 18 40 00 00 	sub    $0x4018,%rsp
  401aa8:	64 48 8b 04 25 28 00 	mov    %fs:0x28,%rax
  401aaf:	00 00 
  401ab1:	48 89 84 24 08 40 00 	mov    %rax,0x4008(%rsp)
  401ab8:	00 
  401ab9:	31 c0                	xor    %eax,%eax
  401abb:	83 3d 46 2a 20 00 00 	cmpl   $0x0,0x202a46(%rip)        # 604508 <is_checker>
  401ac2:	0f 85 d2 00 00 00    	jne    401b9a <notify_server+0xfb>
  401ac8:	89 fb                	mov    %edi,%ebx
  401aca:	8b 05 54 36 20 00    	mov    0x203654(%rip),%eax        # 605124 <gets_cnt>
  401ad0:	83 c0 64             	add    $0x64,%eax
  401ad3:	3d 00 20 00 00       	cmp    $0x2000,%eax
  401ad8:	0f 8f dd 00 00 00    	jg     401bbb <notify_server+0x11c>
  401ade:	0f be 05 43 36 20 00 	movsbl 0x203643(%rip),%eax        # 605128 <target_prefix>
  401ae5:	83 3d 9c 29 20 00 00 	cmpl   $0x0,0x20299c(%rip)        # 604488 <notify>
  401aec:	0f 84 e9 00 00 00    	je     401bdb <notify_server+0x13c>
  401af2:	8b 15 08 2a 20 00    	mov    0x202a08(%rip),%edx        # 604500 <authkey>
  401af8:	85 db                	test   %ebx,%ebx
  401afa:	0f 84 e5 00 00 00    	je     401be5 <notify_server+0x146>
  401b00:	48 8d 2d 7a 17 00 00 	lea    0x177a(%rip),%rbp        # 403281 <_IO_stdin_used+0x401>
  401b07:	48 89 e7             	mov    %rsp,%rdi
  401b0a:	48 8d 0d 0f 2a 20 00 	lea    0x202a0f(%rip),%rcx        # 604520 <gets_buf>
  401b11:	51                   	push   %rcx
  401b12:	56                   	push   %rsi
  401b13:	50                   	push   %rax
  401b14:	52                   	push   %rdx
  401b15:	49 89 e9             	mov    %rbp,%r9
  401b18:	44 8b 05 11 26 20 00 	mov    0x202611(%rip),%r8d        # 604130 <target_id>
  401b1f:	48 8d 0d 65 17 00 00 	lea    0x1765(%rip),%rcx        # 40328b <_IO_stdin_used+0x40b>
  401b26:	ba 00 20 00 00       	mov    $0x2000,%edx
  401b2b:	be 01 00 00 00       	mov    $0x1,%esi
  401b30:	b8 00 00 00 00       	mov    $0x0,%eax
  401b35:	e8 26 f3 ff ff       	call   400e60 <__sprintf_chk@plt>
  401b3a:	48 83 c4 20          	add    $0x20,%rsp
  401b3e:	83 3d 43 29 20 00 00 	cmpl   $0x0,0x202943(%rip)        # 604488 <notify>
  401b45:	0f 84 df 00 00 00    	je     401c2a <notify_server+0x18b>
  401b4b:	85 db                	test   %ebx,%ebx
  401b4d:	0f 84 c6 00 00 00    	je     401c19 <notify_server+0x17a>
  401b53:	48 89 e1             	mov    %rsp,%rcx
  401b56:	4c 8d 8c 24 00 20 00 	lea    0x2000(%rsp),%r9
  401b5d:	00 
  401b5e:	41 b8 00 00 00 00    	mov    $0x0,%r8d
  401b64:	48 8b 15 dd 25 20 00 	mov    0x2025dd(%rip),%rdx        # 604148 <lab>
  401b6b:	48 8b 35 de 25 20 00 	mov    0x2025de(%rip),%rsi        # 604150 <course>
  401b72:	48 8b 3d c7 25 20 00 	mov    0x2025c7(%rip),%rdi        # 604140 <user_id>
  401b79:	e8 af 11 00 00       	call   402d2d <driver_post>
  401b7e:	85 c0                	test   %eax,%eax
  401b80:	78 6f                	js     401bf1 <notify_server+0x152>
  401b82:	48 8d 3d 47 18 00 00 	lea    0x1847(%rip),%rdi        # 4033d0 <_IO_stdin_used+0x550>
  401b89:	e8 32 f1 ff ff       	call   400cc0 <puts@plt>
  401b8e:	48 8d 3d 1e 17 00 00 	lea    0x171e(%rip),%rdi        # 4032b3 <_IO_stdin_used+0x433>
  401b95:	e8 26 f1 ff ff       	call   400cc0 <puts@plt>
  401b9a:	48 8b 84 24 08 40 00 	mov    0x4008(%rsp),%rax
  401ba1:	00 
  401ba2:	64 48 33 04 25 28 00 	xor    %fs:0x28,%rax
  401ba9:	00 00 
  401bab:	0f 85 07 01 00 00    	jne    401cb8 <notify_server+0x219>
  401bb1:	48 81 c4 18 40 00 00 	add    $0x4018,%rsp
  401bb8:	5b                   	pop    %rbx
  401bb9:	5d                   	pop    %rbp
  401bba:	c3                   	ret
  401bbb:	48 8d 35 de 17 00 00 	lea    0x17de(%rip),%rsi        # 4033a0 <_IO_stdin_used+0x520>
  401bc2:	bf 01 00 00 00       	mov    $0x1,%edi
  401bc7:	b8 00 00 00 00       	mov    $0x0,%eax
  401bcc:	e8 0f f2 ff ff       	call   400de0 <__printf_chk@plt>
  401bd1:	bf 01 00 00 00       	mov    $0x1,%edi
  401bd6:	e8 55 f2 ff ff       	call   400e30 <exit@plt>
  401bdb:	ba ff ff ff ff       	mov    $0xffffffff,%edx
  401be0:	e9 13 ff ff ff       	jmp    401af8 <notify_server+0x59>
  401be5:	48 8d 2d 9a 16 00 00 	lea    0x169a(%rip),%rbp        # 403286 <_IO_stdin_used+0x406>
  401bec:	e9 16 ff ff ff       	jmp    401b07 <notify_server+0x68>
  401bf1:	48 8d 94 24 00 20 00 	lea    0x2000(%rsp),%rdx
  401bf8:	00 
  401bf9:	48 8d 35 a7 16 00 00 	lea    0x16a7(%rip),%rsi        # 4032a7 <_IO_stdin_used+0x427>
  401c00:	bf 01 00 00 00       	mov    $0x1,%edi
  401c05:	b8 00 00 00 00       	mov    $0x0,%eax
  401c0a:	e8 d1 f1 ff ff       	call   400de0 <__printf_chk@plt>
  401c0f:	bf 01 00 00 00       	mov    $0x1,%edi
  401c14:	e8 17 f2 ff ff       	call   400e30 <exit@plt>
  401c19:	48 8d 3d 9d 16 00 00 	lea    0x169d(%rip),%rdi        # 4032bd <_IO_stdin_used+0x43d>
  401c20:	e8 9b f0 ff ff       	call   400cc0 <puts@plt>
  401c25:	e9 70 ff ff ff       	jmp    401b9a <notify_server+0xfb>
  401c2a:	48 89 ea             	mov    %rbp,%rdx
  401c2d:	48 8d 35 d4 17 00 00 	lea    0x17d4(%rip),%rsi        # 403408 <_IO_stdin_used+0x588>
  401c34:	bf 01 00 00 00       	mov    $0x1,%edi
  401c39:	b8 00 00 00 00       	mov    $0x0,%eax
  401c3e:	e8 9d f1 ff ff       	call   400de0 <__printf_chk@plt>
  401c43:	48 8b 15 f6 24 20 00 	mov    0x2024f6(%rip),%rdx        # 604140 <user_id>
  401c4a:	48 8d 35 73 16 00 00 	lea    0x1673(%rip),%rsi        # 4032c4 <_IO_stdin_used+0x444>
  401c51:	bf 01 00 00 00       	mov    $0x1,%edi
  401c56:	b8 00 00 00 00       	mov    $0x0,%eax
  401c5b:	e8 80 f1 ff ff       	call   400de0 <__printf_chk@plt>
  401c60:	48 8b 15 e9 24 20 00 	mov    0x2024e9(%rip),%rdx        # 604150 <course>
  401c67:	48 8d 35 63 16 00 00 	lea    0x1663(%rip),%rsi        # 4032d1 <_IO_stdin_used+0x451>
  401c6e:	bf 01 00 00 00       	mov    $0x1,%edi
  401c73:	b8 00 00 00 00       	mov    $0x0,%eax
  401c78:	e8 63 f1 ff ff       	call   400de0 <__printf_chk@plt>
  401c7d:	48 8b 15 c4 24 20 00 	mov    0x2024c4(%rip),%rdx        # 604148 <lab>
  401c84:	48 8d 35 52 16 00 00 	lea    0x1652(%rip),%rsi        # 4032dd <_IO_stdin_used+0x45d>
  401c8b:	bf 01 00 00 00       	mov    $0x1,%edi
  401c90:	b8 00 00 00 00       	mov    $0x0,%eax
  401c95:	e8 46 f1 ff ff       	call   400de0 <__printf_chk@plt>
  401c9a:	48 89 e2             	mov    %rsp,%rdx
  401c9d:	48 8d 35 42 16 00 00 	lea    0x1642(%rip),%rsi        # 4032e6 <_IO_stdin_used+0x466>
  401ca4:	bf 01 00 00 00       	mov    $0x1,%edi
  401ca9:	b8 00 00 00 00       	mov    $0x0,%eax
  401cae:	e8 2d f1 ff ff       	call   400de0 <__printf_chk@plt>
  401cb3:	e9 e2 fe ff ff       	jmp    401b9a <notify_server+0xfb>
  401cb8:	e8 23 f0 ff ff       	call   400ce0 <__stack_chk_fail@plt>

0000000000401cbd <validate>:
  401cbd:	53                   	push   %rbx
  401cbe:	89 fb                	mov    %edi,%ebx
  401cc0:	83 3d 41 28 20 00 00 	cmpl   $0x0,0x202841(%rip)        # 604508 <is_checker>
  401cc7:	74 72                	je     401d3b <validate+0x7e>
  401cc9:	39 3d 2d 28 20 00    	cmp    %edi,0x20282d(%rip)        # 6044fc <vlevel>
  401ccf:	75 32                	jne    401d03 <validate+0x46>
  401cd1:	8b 15 21 28 20 00    	mov    0x202821(%rip),%edx        # 6044f8 <check_level>
  401cd7:	39 fa                	cmp    %edi,%edx
  401cd9:	75 3e                	jne    401d19 <validate+0x5c>
  401cdb:	0f be 15 46 34 20 00 	movsbl 0x203446(%rip),%edx        # 605128 <target_prefix>
  401ce2:	4c 8d 05 37 28 20 00 	lea    0x202837(%rip),%r8        # 604520 <gets_buf>
  401ce9:	89 f9                	mov    %edi,%ecx
  401ceb:	48 8d 35 1e 16 00 00 	lea    0x161e(%rip),%rsi        # 403310 <_IO_stdin_used+0x490>
  401cf2:	bf 01 00 00 00       	mov    $0x1,%edi
  401cf7:	b8 00 00 00 00       	mov    $0x0,%eax
  401cfc:	e8 df f0 ff ff       	call   400de0 <__printf_chk@plt>
  401d01:	5b                   	pop    %rbx
  401d02:	c3                   	ret
  401d03:	48 8d 3d e8 15 00 00 	lea    0x15e8(%rip),%rdi        # 4032f2 <_IO_stdin_used+0x472>
  401d0a:	e8 b1 ef ff ff       	call   400cc0 <puts@plt>
  401d0f:	b8 00 00 00 00       	mov    $0x0,%eax
  401d14:	e8 fc fc ff ff       	call   401a15 <check_fail>
  401d19:	89 f9                	mov    %edi,%ecx
  401d1b:	48 8d 35 0e 17 00 00 	lea    0x170e(%rip),%rsi        # 403430 <_IO_stdin_used+0x5b0>
  401d22:	bf 01 00 00 00       	mov    $0x1,%edi
  401d27:	b8 00 00 00 00       	mov    $0x0,%eax
  401d2c:	e8 af f0 ff ff       	call   400de0 <__printf_chk@plt>
  401d31:	b8 00 00 00 00       	mov    $0x0,%eax
  401d36:	e8 da fc ff ff       	call   401a15 <check_fail>
  401d3b:	39 3d bb 27 20 00    	cmp    %edi,0x2027bb(%rip)        # 6044fc <vlevel>
  401d41:	74 1a                	je     401d5d <validate+0xa0>
  401d43:	48 8d 3d a8 15 00 00 	lea    0x15a8(%rip),%rdi        # 4032f2 <_IO_stdin_used+0x472>
  401d4a:	e8 71 ef ff ff       	call   400cc0 <puts@plt>
  401d4f:	89 de                	mov    %ebx,%esi
  401d51:	bf 00 00 00 00       	mov    $0x0,%edi
  401d56:	e8 44 fd ff ff       	call   401a9f <notify_server>
  401d5b:	eb a4                	jmp    401d01 <validate+0x44>
  401d5d:	0f be 0d c4 33 20 00 	movsbl 0x2033c4(%rip),%ecx        # 605128 <target_prefix>
  401d64:	89 fa                	mov    %edi,%edx
  401d66:	48 8d 35 eb 16 00 00 	lea    0x16eb(%rip),%rsi        # 403458 <_IO_stdin_used+0x5d8>
  401d6d:	bf 01 00 00 00       	mov    $0x1,%edi
  401d72:	b8 00 00 00 00       	mov    $0x0,%eax
  401d77:	e8 64 f0 ff ff       	call   400de0 <__printf_chk@plt>
  401d7c:	89 de                	mov    %ebx,%esi
  401d7e:	bf 01 00 00 00       	mov    $0x1,%edi
  401d83:	e8 17 fd ff ff       	call   401a9f <notify_server>
  401d88:	e9 74 ff ff ff       	jmp    401d01 <validate+0x44>

0000000000401d8d <fail>:
  401d8d:	48 83 ec 08          	sub    $0x8,%rsp
  401d91:	83 3d 70 27 20 00 00 	cmpl   $0x0,0x202770(%rip)        # 604508 <is_checker>
  401d98:	75 11                	jne    401dab <fail+0x1e>
  401d9a:	89 fe                	mov    %edi,%esi
  401d9c:	bf 00 00 00 00       	mov    $0x0,%edi
  401da1:	e8 f9 fc ff ff       	call   401a9f <notify_server>
  401da6:	48 83 c4 08          	add    $0x8,%rsp
  401daa:	c3                   	ret
  401dab:	b8 00 00 00 00       	mov    $0x0,%eax
  401db0:	e8 60 fc ff ff       	call   401a15 <check_fail>

0000000000401db5 <bushandler>:
  401db5:	48 83 ec 08          	sub    $0x8,%rsp
  401db9:	83 3d 48 27 20 00 00 	cmpl   $0x0,0x202748(%rip)        # 604508 <is_checker>
  401dc0:	74 16                	je     401dd8 <bushandler+0x23>
  401dc2:	48 8d 3d 5c 15 00 00 	lea    0x155c(%rip),%rdi        # 403325 <_IO_stdin_used+0x4a5>
  401dc9:	e8 f2 ee ff ff       	call   400cc0 <puts@plt>
  401dce:	b8 00 00 00 00       	mov    $0x0,%eax
  401dd3:	e8 3d fc ff ff       	call   401a15 <check_fail>
  401dd8:	48 8d 3d b1 16 00 00 	lea    0x16b1(%rip),%rdi        # 403490 <_IO_stdin_used+0x610>
  401ddf:	e8 dc ee ff ff       	call   400cc0 <puts@plt>
  401de4:	48 8d 3d 44 15 00 00 	lea    0x1544(%rip),%rdi        # 40332f <_IO_stdin_used+0x4af>
  401deb:	e8 d0 ee ff ff       	call   400cc0 <puts@plt>
  401df0:	be 00 00 00 00       	mov    $0x0,%esi
  401df5:	bf 00 00 00 00       	mov    $0x0,%edi
  401dfa:	e8 a0 fc ff ff       	call   401a9f <notify_server>
  401dff:	bf 01 00 00 00       	mov    $0x1,%edi
  401e04:	e8 27 f0 ff ff       	call   400e30 <exit@plt>

0000000000401e09 <seghandler>:
  401e09:	48 83 ec 08          	sub    $0x8,%rsp
  401e0d:	83 3d f4 26 20 00 00 	cmpl   $0x0,0x2026f4(%rip)        # 604508 <is_checker>
  401e14:	74 16                	je     401e2c <seghandler+0x23>
  401e16:	48 8d 3d 28 15 00 00 	lea    0x1528(%rip),%rdi        # 403345 <_IO_stdin_used+0x4c5>
  401e1d:	e8 9e ee ff ff       	call   400cc0 <puts@plt>
  401e22:	b8 00 00 00 00       	mov    $0x0,%eax
  401e27:	e8 e9 fb ff ff       	call   401a15 <check_fail>
  401e2c:	48 8d 3d 7d 16 00 00 	lea    0x167d(%rip),%rdi        # 4034b0 <_IO_stdin_used+0x630>
  401e33:	e8 88 ee ff ff       	call   400cc0 <puts@plt>
  401e38:	48 8d 3d f0 14 00 00 	lea    0x14f0(%rip),%rdi        # 40332f <_IO_stdin_used+0x4af>
  401e3f:	e8 7c ee ff ff       	call   400cc0 <puts@plt>
  401e44:	be 00 00 00 00       	mov    $0x0,%esi
  401e49:	bf 00 00 00 00       	mov    $0x0,%edi
  401e4e:	e8 4c fc ff ff       	call   401a9f <notify_server>
  401e53:	bf 01 00 00 00       	mov    $0x1,%edi
  401e58:	e8 d3 ef ff ff       	call   400e30 <exit@plt>

0000000000401e5d <illegalhandler>:
  401e5d:	48 83 ec 08          	sub    $0x8,%rsp
  401e61:	83 3d a0 26 20 00 00 	cmpl   $0x0,0x2026a0(%rip)        # 604508 <is_checker>
  401e68:	74 16                	je     401e80 <illegalhandler+0x23>
  401e6a:	48 8d 3d e7 14 00 00 	lea    0x14e7(%rip),%rdi        # 403358 <_IO_stdin_used+0x4d8>
  401e71:	e8 4a ee ff ff       	call   400cc0 <puts@plt>
  401e76:	b8 00 00 00 00       	mov    $0x0,%eax
  401e7b:	e8 95 fb ff ff       	call   401a15 <check_fail>
  401e80:	48 8d 3d 51 16 00 00 	lea    0x1651(%rip),%rdi        # 4034d8 <_IO_stdin_used+0x658>
  401e87:	e8 34 ee ff ff       	call   400cc0 <puts@plt>
  401e8c:	48 8d 3d 9c 14 00 00 	lea    0x149c(%rip),%rdi        # 40332f <_IO_stdin_used+0x4af>
  401e93:	e8 28 ee ff ff       	call   400cc0 <puts@plt>
  401e98:	be 00 00 00 00       	mov    $0x0,%esi
  401e9d:	bf 00 00 00 00       	mov    $0x0,%edi
  401ea2:	e8 f8 fb ff ff       	call   401a9f <notify_server>
  401ea7:	bf 01 00 00 00       	mov    $0x1,%edi
  401eac:	e8 7f ef ff ff       	call   400e30 <exit@plt>

0000000000401eb1 <sigalrmhandler>:
  401eb1:	48 83 ec 08          	sub    $0x8,%rsp
  401eb5:	83 3d 4c 26 20 00 00 	cmpl   $0x0,0x20264c(%rip)        # 604508 <is_checker>
  401ebc:	74 16                	je     401ed4 <sigalrmhandler+0x23>
  401ebe:	48 8d 3d a7 14 00 00 	lea    0x14a7(%rip),%rdi        # 40336c <_IO_stdin_used+0x4ec>
  401ec5:	e8 f6 ed ff ff       	call   400cc0 <puts@plt>
  401eca:	b8 00 00 00 00       	mov    $0x0,%eax
  401ecf:	e8 41 fb ff ff       	call   401a15 <check_fail>
  401ed4:	ba 05 00 00 00       	mov    $0x5,%edx
  401ed9:	48 8d 35 28 16 00 00 	lea    0x1628(%rip),%rsi        # 403508 <_IO_stdin_used+0x688>
  401ee0:	bf 01 00 00 00       	mov    $0x1,%edi
  401ee5:	b8 00 00 00 00       	mov    $0x0,%eax
  401eea:	e8 f1 ee ff ff       	call   400de0 <__printf_chk@plt>
  401eef:	be 00 00 00 00       	mov    $0x0,%esi
  401ef4:	bf 00 00 00 00       	mov    $0x0,%edi
  401ef9:	e8 a1 fb ff ff       	call   401a9f <notify_server>
  401efe:	bf 01 00 00 00       	mov    $0x1,%edi
  401f03:	e8 28 ef ff ff       	call   400e30 <exit@plt>

0000000000401f08 <launch>:
  401f08:	55                   	push   %rbp
  401f09:	48 89 e5             	mov    %rsp,%rbp
  401f0c:	48 83 ec 10          	sub    $0x10,%rsp
  401f10:	48 89 fa             	mov    %rdi,%rdx
  401f13:	64 48 8b 04 25 28 00 	mov    %fs:0x28,%rax
  401f1a:	00 00 
  401f1c:	48 89 45 f8          	mov    %rax,-0x8(%rbp)
  401f20:	31 c0                	xor    %eax,%eax
  401f22:	48 8d 47 1e          	lea    0x1e(%rdi),%rax
  401f26:	48 83 e0 f0          	and    $0xfffffffffffffff0,%rax
  401f2a:	48 29 c4             	sub    %rax,%rsp
  401f2d:	48 8d 7c 24 0f       	lea    0xf(%rsp),%rdi
  401f32:	48 83 e7 f0          	and    $0xfffffffffffffff0,%rdi
  401f36:	be f4 00 00 00       	mov    $0xf4,%esi
  401f3b:	e8 c0 ed ff ff       	call   400d00 <memset@plt>
  401f40:	48 8b 05 59 25 20 00 	mov    0x202559(%rip),%rax        # 6044a0 <stdin@GLIBC_2.2.5>
  401f47:	48 39 05 a2 25 20 00 	cmp    %rax,0x2025a2(%rip)        # 6044f0 <infile>
  401f4e:	74 3a                	je     401f8a <launch+0x82>
  401f50:	c7 05 a2 25 20 00 00 	movl   $0x0,0x2025a2(%rip)        # 6044fc <vlevel>
  401f57:	00 00 00 
  401f5a:	b8 00 00 00 00       	mov    $0x0,%eax
  401f5f:	e8 16 fa ff ff       	call   40197a <test>
  401f64:	83 3d 9d 25 20 00 00 	cmpl   $0x0,0x20259d(%rip)        # 604508 <is_checker>
  401f6b:	75 35                	jne    401fa2 <launch+0x9a>
  401f6d:	48 8d 3d 18 14 00 00 	lea    0x1418(%rip),%rdi        # 40338c <_IO_stdin_used+0x50c>
  401f74:	e8 47 ed ff ff       	call   400cc0 <puts@plt>
  401f79:	48 8b 45 f8          	mov    -0x8(%rbp),%rax
  401f7d:	64 48 33 04 25 28 00 	xor    %fs:0x28,%rax
  401f84:	00 00 
  401f86:	75 30                	jne    401fb8 <launch+0xb0>
  401f88:	c9                   	leave
  401f89:	c3                   	ret
  401f8a:	48 8d 35 e3 13 00 00 	lea    0x13e3(%rip),%rsi        # 403374 <_IO_stdin_used+0x4f4>
  401f91:	bf 01 00 00 00       	mov    $0x1,%edi
  401f96:	b8 00 00 00 00       	mov    $0x0,%eax
  401f9b:	e8 40 ee ff ff       	call   400de0 <__printf_chk@plt>
  401fa0:	eb ae                	jmp    401f50 <launch+0x48>
  401fa2:	48 8d 3d d8 13 00 00 	lea    0x13d8(%rip),%rdi        # 403381 <_IO_stdin_used+0x501>
  401fa9:	e8 12 ed ff ff       	call   400cc0 <puts@plt>
  401fae:	b8 00 00 00 00       	mov    $0x0,%eax
  401fb3:	e8 5d fa ff ff       	call   401a15 <check_fail>
  401fb8:	e8 23 ed ff ff       	call   400ce0 <__stack_chk_fail@plt>

0000000000401fbd <stable_launch>:
  401fbd:	53                   	push   %rbx
  401fbe:	48 89 3d 23 25 20 00 	mov    %rdi,0x202523(%rip)        # 6044e8 <global_offset>
  401fc5:	41 b9 00 00 00 00    	mov    $0x0,%r9d
  401fcb:	41 b8 00 00 00 00    	mov    $0x0,%r8d
  401fd1:	b9 32 01 00 00       	mov    $0x132,%ecx
  401fd6:	ba 07 00 00 00       	mov    $0x7,%edx
  401fdb:	be 00 00 10 00       	mov    $0x100000,%esi
  401fe0:	bf 00 60 58 55       	mov    $0x55586000,%edi
  401fe5:	e8 06 ed ff ff       	call   400cf0 <mmap@plt>
  401fea:	48 89 c3             	mov    %rax,%rbx
  401fed:	48 3d 00 60 58 55    	cmp    $0x55586000,%rax
  401ff3:	75 43                	jne    402038 <stable_launch+0x7b>
  401ff5:	48 8d 90 f8 ff 0f 00 	lea    0xffff8(%rax),%rdx
  401ffc:	48 89 15 2d 31 20 00 	mov    %rdx,0x20312d(%rip)        # 605130 <stack_top>
  402003:	48 89 e0             	mov    %rsp,%rax
  402006:	48 89 d4             	mov    %rdx,%rsp
  402009:	48 89 c2             	mov    %rax,%rdx
  40200c:	48 89 15 cd 24 20 00 	mov    %rdx,0x2024cd(%rip)        # 6044e0 <global_save_stack>
  402013:	48 8b 3d ce 24 20 00 	mov    0x2024ce(%rip),%rdi        # 6044e8 <global_offset>
  40201a:	e8 e9 fe ff ff       	call   401f08 <launch>
  40201f:	48 8b 05 ba 24 20 00 	mov    0x2024ba(%rip),%rax        # 6044e0 <global_save_stack>
  402026:	48 89 c4             	mov    %rax,%rsp
  402029:	be 00 00 10 00       	mov    $0x100000,%esi
  40202e:	48 89 df             	mov    %rbx,%rdi
  402031:	e8 9a ed ff ff       	call   400dd0 <munmap@plt>
  402036:	5b                   	pop    %rbx
  402037:	c3                   	ret
  402038:	be 00 00 10 00       	mov    $0x100000,%esi
  40203d:	48 89 c7             	mov    %rax,%rdi
  402040:	e8 8b ed ff ff       	call   400dd0 <munmap@plt>
  402045:	b9 00 60 58 55       	mov    $0x55586000,%ecx
  40204a:	48 8d 15 ef 14 00 00 	lea    0x14ef(%rip),%rdx        # 403540 <_IO_stdin_used+0x6c0>
  402051:	be 01 00 00 00       	mov    $0x1,%esi
  402056:	48 8b 3d 63 24 20 00 	mov    0x202463(%rip),%rdi        # 6044c0 <stderr@GLIBC_2.2.5>
  40205d:	b8 00 00 00 00       	mov    $0x0,%eax
  402062:	e8 e9 ed ff ff       	call   400e50 <__fprintf_chk@plt>
  402067:	bf 01 00 00 00       	mov    $0x1,%edi
  40206c:	e8 bf ed ff ff       	call   400e30 <exit@plt>

0000000000402071 <rio_readinitb>:
  402071:	89 37                	mov    %esi,(%rdi)
  402073:	c7 47 04 00 00 00 00 	movl   $0x0,0x4(%rdi)
  40207a:	48 8d 47 10          	lea    0x10(%rdi),%rax
  40207e:	48 89 47 08          	mov    %rax,0x8(%rdi)
  402082:	c3                   	ret

0000000000402083 <sigalrm_handler>:
  402083:	48 83 ec 08          	sub    $0x8,%rsp
  402087:	b9 00 00 00 00       	mov    $0x0,%ecx
  40208c:	48 8d 15 ed 14 00 00 	lea    0x14ed(%rip),%rdx        # 403580 <trans_char+0x10>
  402093:	be 01 00 00 00       	mov    $0x1,%esi
  402098:	48 8b 3d 21 24 20 00 	mov    0x202421(%rip),%rdi        # 6044c0 <stderr@GLIBC_2.2.5>
  40209f:	b8 00 00 00 00       	mov    $0x0,%eax
  4020a4:	e8 a7 ed ff ff       	call   400e50 <__fprintf_chk@plt>
  4020a9:	bf 01 00 00 00       	mov    $0x1,%edi
  4020ae:	e8 7d ed ff ff       	call   400e30 <exit@plt>

00000000004020b3 <rio_writen>:
  4020b3:	41 55                	push   %r13
  4020b5:	41 54                	push   %r12
  4020b7:	55                   	push   %rbp
  4020b8:	53                   	push   %rbx
  4020b9:	48 83 ec 08          	sub    $0x8,%rsp
  4020bd:	41 89 fc             	mov    %edi,%r12d
  4020c0:	48 89 f5             	mov    %rsi,%rbp
  4020c3:	49 89 d5             	mov    %rdx,%r13
  4020c6:	48 89 d3             	mov    %rdx,%rbx
  4020c9:	eb 06                	jmp    4020d1 <rio_writen+0x1e>
  4020cb:	48 29 c3             	sub    %rax,%rbx
  4020ce:	48 01 c5             	add    %rax,%rbp
  4020d1:	48 85 db             	test   %rbx,%rbx
  4020d4:	74 24                	je     4020fa <rio_writen+0x47>
  4020d6:	48 89 da             	mov    %rbx,%rdx
  4020d9:	48 89 ee             	mov    %rbp,%rsi
  4020dc:	44 89 e7             	mov    %r12d,%edi
  4020df:	e8 ec eb ff ff       	call   400cd0 <write@plt>
  4020e4:	48 85 c0             	test   %rax,%rax
  4020e7:	7f e2                	jg     4020cb <rio_writen+0x18>
  4020e9:	e8 92 eb ff ff       	call   400c80 <__errno_location@plt>
  4020ee:	83 38 04             	cmpl   $0x4,(%rax)
  4020f1:	75 15                	jne    402108 <rio_writen+0x55>
  4020f3:	b8 00 00 00 00       	mov    $0x0,%eax
  4020f8:	eb d1                	jmp    4020cb <rio_writen+0x18>
  4020fa:	4c 89 e8             	mov    %r13,%rax
  4020fd:	48 83 c4 08          	add    $0x8,%rsp
  402101:	5b                   	pop    %rbx
  402102:	5d                   	pop    %rbp
  402103:	41 5c                	pop    %r12
  402105:	41 5d                	pop    %r13
  402107:	c3                   	ret
  402108:	48 c7 c0 ff ff ff ff 	mov    $0xffffffffffffffff,%rax
  40210f:	eb ec                	jmp    4020fd <rio_writen+0x4a>

0000000000402111 <rio_read>:
  402111:	41 55                	push   %r13
  402113:	41 54                	push   %r12
  402115:	55                   	push   %rbp
  402116:	53                   	push   %rbx
  402117:	48 83 ec 08          	sub    $0x8,%rsp
  40211b:	48 89 fb             	mov    %rdi,%rbx
  40211e:	49 89 f5             	mov    %rsi,%r13
  402121:	49 89 d4             	mov    %rdx,%r12
  402124:	eb 0a                	jmp    402130 <rio_read+0x1f>
  402126:	e8 55 eb ff ff       	call   400c80 <__errno_location@plt>
  40212b:	83 38 04             	cmpl   $0x4,(%rax)
  40212e:	75 5c                	jne    40218c <rio_read+0x7b>
  402130:	8b 6b 04             	mov    0x4(%rbx),%ebp
  402133:	85 ed                	test   %ebp,%ebp
  402135:	7f 24                	jg     40215b <rio_read+0x4a>
  402137:	48 8d 6b 10          	lea    0x10(%rbx),%rbp
  40213b:	8b 3b                	mov    (%rbx),%edi
  40213d:	ba 00 20 00 00       	mov    $0x2000,%edx
  402142:	48 89 ee             	mov    %rbp,%rsi
  402145:	e8 e6 eb ff ff       	call   400d30 <read@plt>
  40214a:	89 43 04             	mov    %eax,0x4(%rbx)
  40214d:	85 c0                	test   %eax,%eax
  40214f:	78 d5                	js     402126 <rio_read+0x15>
  402151:	85 c0                	test   %eax,%eax
  402153:	74 40                	je     402195 <rio_read+0x84>
  402155:	48 89 6b 08          	mov    %rbp,0x8(%rbx)
  402159:	eb d5                	jmp    402130 <rio_read+0x1f>
  40215b:	89 e8                	mov    %ebp,%eax
  40215d:	4c 39 e0             	cmp    %r12,%rax
  402160:	72 03                	jb     402165 <rio_read+0x54>
  402162:	44 89 e5             	mov    %r12d,%ebp
  402165:	4c 63 e5             	movslq %ebp,%r12
  402168:	48 8b 73 08          	mov    0x8(%rbx),%rsi
  40216c:	4c 89 e2             	mov    %r12,%rdx
  40216f:	4c 89 ef             	mov    %r13,%rdi
  402172:	e8 09 ec ff ff       	call   400d80 <memcpy@plt>
  402177:	4c 01 63 08          	add    %r12,0x8(%rbx)
  40217b:	29 6b 04             	sub    %ebp,0x4(%rbx)
  40217e:	4c 89 e0             	mov    %r12,%rax
  402181:	48 83 c4 08          	add    $0x8,%rsp
  402185:	5b                   	pop    %rbx
  402186:	5d                   	pop    %rbp
  402187:	41 5c                	pop    %r12
  402189:	41 5d                	pop    %r13
  40218b:	c3                   	ret
  40218c:	48 c7 c0 ff ff ff ff 	mov    $0xffffffffffffffff,%rax
  402193:	eb ec                	jmp    402181 <rio_read+0x70>
  402195:	b8 00 00 00 00       	mov    $0x0,%eax
  40219a:	eb e5                	jmp    402181 <rio_read+0x70>

000000000040219c <rio_readlineb>:
  40219c:	41 55                	push   %r13
  40219e:	41 54                	push   %r12
  4021a0:	55                   	push   %rbp
  4021a1:	53                   	push   %rbx
  4021a2:	48 83 ec 18          	sub    $0x18,%rsp
  4021a6:	49 89 fd             	mov    %rdi,%r13
  4021a9:	48 89 f5             	mov    %rsi,%rbp
  4021ac:	49 89 d4             	mov    %rdx,%r12
  4021af:	64 48 8b 04 25 28 00 	mov    %fs:0x28,%rax
  4021b6:	00 00 
  4021b8:	48 89 44 24 08       	mov    %rax,0x8(%rsp)
  4021bd:	31 c0                	xor    %eax,%eax
  4021bf:	bb 01 00 00 00       	mov    $0x1,%ebx
  4021c4:	4c 39 e3             	cmp    %r12,%rbx
  4021c7:	73 47                	jae    402210 <rio_readlineb+0x74>
  4021c9:	48 8d 74 24 07       	lea    0x7(%rsp),%rsi
  4021ce:	ba 01 00 00 00       	mov    $0x1,%edx
  4021d3:	4c 89 ef             	mov    %r13,%rdi
  4021d6:	e8 36 ff ff ff       	call   402111 <rio_read>
  4021db:	83 f8 01             	cmp    $0x1,%eax
  4021de:	75 1c                	jne    4021fc <rio_readlineb+0x60>
  4021e0:	48 8d 45 01          	lea    0x1(%rbp),%rax
  4021e4:	0f b6 54 24 07       	movzbl 0x7(%rsp),%edx
  4021e9:	88 55 00             	mov    %dl,0x0(%rbp)
  4021ec:	80 7c 24 07 0a       	cmpb   $0xa,0x7(%rsp)
  4021f1:	74 1a                	je     40220d <rio_readlineb+0x71>
  4021f3:	48 83 c3 01          	add    $0x1,%rbx
  4021f7:	48 89 c5             	mov    %rax,%rbp
  4021fa:	eb c8                	jmp    4021c4 <rio_readlineb+0x28>
  4021fc:	85 c0                	test   %eax,%eax
  4021fe:	75 32                	jne    402232 <rio_readlineb+0x96>
  402200:	48 83 fb 01          	cmp    $0x1,%rbx
  402204:	75 0a                	jne    402210 <rio_readlineb+0x74>
  402206:	b8 00 00 00 00       	mov    $0x0,%eax
  40220b:	eb 0a                	jmp    402217 <rio_readlineb+0x7b>
  40220d:	48 89 c5             	mov    %rax,%rbp
  402210:	c6 45 00 00          	movb   $0x0,0x0(%rbp)
  402214:	48 89 d8             	mov    %rbx,%rax
  402217:	48 8b 4c 24 08       	mov    0x8(%rsp),%rcx
  40221c:	64 48 33 0c 25 28 00 	xor    %fs:0x28,%rcx
  402223:	00 00 
  402225:	75 14                	jne    40223b <rio_readlineb+0x9f>
  402227:	48 83 c4 18          	add    $0x18,%rsp
  40222b:	5b                   	pop    %rbx
  40222c:	5d                   	pop    %rbp
  40222d:	41 5c                	pop    %r12
  40222f:	41 5d                	pop    %r13
  402231:	c3                   	ret
  402232:	48 c7 c0 ff ff ff ff 	mov    $0xffffffffffffffff,%rax
  402239:	eb dc                	jmp    402217 <rio_readlineb+0x7b>
  40223b:	e8 a0 ea ff ff       	call   400ce0 <__stack_chk_fail@plt>

0000000000402240 <urlencode>:
  402240:	41 54                	push   %r12
  402242:	55                   	push   %rbp
  402243:	53                   	push   %rbx
  402244:	48 83 ec 10          	sub    $0x10,%rsp
  402248:	48 89 fb             	mov    %rdi,%rbx
  40224b:	48 89 f5             	mov    %rsi,%rbp
  40224e:	64 48 8b 04 25 28 00 	mov    %fs:0x28,%rax
  402255:	00 00 
  402257:	48 89 44 24 08       	mov    %rax,0x8(%rsp)
  40225c:	31 c0                	xor    %eax,%eax
  40225e:	48 c7 c1 ff ff ff ff 	mov    $0xffffffffffffffff,%rcx
  402265:	f2 ae                	repnz scas %es:(%rdi),%al
  402267:	48 89 ce             	mov    %rcx,%rsi
  40226a:	48 f7 d6             	not    %rsi
  40226d:	8d 46 ff             	lea    -0x1(%rsi),%eax
  402270:	eb 0f                	jmp    402281 <urlencode+0x41>
  402272:	44 88 45 00          	mov    %r8b,0x0(%rbp)
  402276:	48 8d 6d 01          	lea    0x1(%rbp),%rbp
  40227a:	48 83 c3 01          	add    $0x1,%rbx
  40227e:	44 89 e0             	mov    %r12d,%eax
  402281:	44 8d 60 ff          	lea    -0x1(%rax),%r12d
  402285:	85 c0                	test   %eax,%eax
  402287:	0f 84 a8 00 00 00    	je     402335 <urlencode+0xf5>
  40228d:	44 0f b6 03          	movzbl (%rbx),%r8d
  402291:	41 80 f8 2a          	cmp    $0x2a,%r8b
  402295:	0f 94 c2             	sete   %dl
  402298:	41 80 f8 2d          	cmp    $0x2d,%r8b
  40229c:	0f 94 c0             	sete   %al
  40229f:	08 c2                	or     %al,%dl
  4022a1:	75 cf                	jne    402272 <urlencode+0x32>
  4022a3:	41 80 f8 2e          	cmp    $0x2e,%r8b
  4022a7:	74 c9                	je     402272 <urlencode+0x32>
  4022a9:	41 80 f8 5f          	cmp    $0x5f,%r8b
  4022ad:	74 c3                	je     402272 <urlencode+0x32>
  4022af:	41 8d 40 d0          	lea    -0x30(%r8),%eax
  4022b3:	3c 09                	cmp    $0x9,%al
  4022b5:	76 bb                	jbe    402272 <urlencode+0x32>
  4022b7:	41 8d 40 bf          	lea    -0x41(%r8),%eax
  4022bb:	3c 19                	cmp    $0x19,%al
  4022bd:	76 b3                	jbe    402272 <urlencode+0x32>
  4022bf:	41 8d 40 9f          	lea    -0x61(%r8),%eax
  4022c3:	3c 19                	cmp    $0x19,%al
  4022c5:	76 ab                	jbe    402272 <urlencode+0x32>
  4022c7:	41 80 f8 20          	cmp    $0x20,%r8b
  4022cb:	74 56                	je     402323 <urlencode+0xe3>
  4022cd:	41 8d 40 e0          	lea    -0x20(%r8),%eax
  4022d1:	3c 5f                	cmp    $0x5f,%al
  4022d3:	0f 96 c2             	setbe  %dl
  4022d6:	41 80 f8 09          	cmp    $0x9,%r8b
  4022da:	0f 94 c0             	sete   %al
  4022dd:	08 c2                	or     %al,%dl
  4022df:	74 4f                	je     402330 <urlencode+0xf0>
  4022e1:	48 89 e7             	mov    %rsp,%rdi
  4022e4:	45 0f b6 c0          	movzbl %r8b,%r8d
  4022e8:	48 8d 0d 29 13 00 00 	lea    0x1329(%rip),%rcx        # 403618 <trans_char+0xa8>
  4022ef:	ba 08 00 00 00       	mov    $0x8,%edx
  4022f4:	be 01 00 00 00       	mov    $0x1,%esi
  4022f9:	b8 00 00 00 00       	mov    $0x0,%eax
  4022fe:	e8 5d eb ff ff       	call   400e60 <__sprintf_chk@plt>
  402303:	0f b6 04 24          	movzbl (%rsp),%eax
  402307:	88 45 00             	mov    %al,0x0(%rbp)
  40230a:	0f b6 44 24 01       	movzbl 0x1(%rsp),%eax
  40230f:	88 45 01             	mov    %al,0x1(%rbp)
  402312:	0f b6 44 24 02       	movzbl 0x2(%rsp),%eax
  402317:	88 45 02             	mov    %al,0x2(%rbp)
  40231a:	48 8d 6d 03          	lea    0x3(%rbp),%rbp
  40231e:	e9 57 ff ff ff       	jmp    40227a <urlencode+0x3a>
  402323:	c6 45 00 2b          	movb   $0x2b,0x0(%rbp)
  402327:	48 8d 6d 01          	lea    0x1(%rbp),%rbp
  40232b:	e9 4a ff ff ff       	jmp    40227a <urlencode+0x3a>
  402330:	b8 ff ff ff ff       	mov    $0xffffffff,%eax
  402335:	48 8b 74 24 08       	mov    0x8(%rsp),%rsi
  40233a:	64 48 33 34 25 28 00 	xor    %fs:0x28,%rsi
  402341:	00 00 
  402343:	75 09                	jne    40234e <urlencode+0x10e>
  402345:	48 83 c4 10          	add    $0x10,%rsp
  402349:	5b                   	pop    %rbx
  40234a:	5d                   	pop    %rbp
  40234b:	41 5c                	pop    %r12
  40234d:	c3                   	ret
  40234e:	e8 8d e9 ff ff       	call   400ce0 <__stack_chk_fail@plt>

0000000000402353 <submitr>:
  402353:	41 57                	push   %r15
  402355:	41 56                	push   %r14
  402357:	41 55                	push   %r13
  402359:	41 54                	push   %r12
  40235b:	55                   	push   %rbp
  40235c:	53                   	push   %rbx
  40235d:	48 81 ec 68 a0 00 00 	sub    $0xa068,%rsp
  402364:	49 89 fd             	mov    %rdi,%r13
  402367:	89 74 24 14          	mov    %esi,0x14(%rsp)
  40236b:	49 89 d7             	mov    %rdx,%r15
  40236e:	48 89 4c 24 08       	mov    %rcx,0x8(%rsp)
  402373:	4c 89 44 24 18       	mov    %r8,0x18(%rsp)
  402378:	4d 89 ce             	mov    %r9,%r14
  40237b:	48 8b ac 24 a0 a0 00 	mov    0xa0a0(%rsp),%rbp
  402382:	00 
  402383:	64 48 8b 04 25 28 00 	mov    %fs:0x28,%rax
  40238a:	00 00 
  40238c:	48 89 84 24 58 a0 00 	mov    %rax,0xa058(%rsp)
  402393:	00 
  402394:	31 c0                	xor    %eax,%eax
  402396:	c7 44 24 2c 00 00 00 	movl   $0x0,0x2c(%rsp)
  40239d:	00 
  40239e:	ba 00 00 00 00       	mov    $0x0,%edx
  4023a3:	be 01 00 00 00       	mov    $0x1,%esi
  4023a8:	bf 02 00 00 00       	mov    $0x2,%edi
  4023ad:	e8 be ea ff ff       	call   400e70 <socket@plt>
  4023b2:	85 c0                	test   %eax,%eax
  4023b4:	0f 88 a9 02 00 00    	js     402663 <submitr+0x310>
  4023ba:	89 c3                	mov    %eax,%ebx
  4023bc:	4c 89 ef             	mov    %r13,%rdi
  4023bf:	e8 8c e9 ff ff       	call   400d50 <gethostbyname@plt>
  4023c4:	48 85 c0             	test   %rax,%rax
  4023c7:	0f 84 e2 02 00 00    	je     4026af <submitr+0x35c>
  4023cd:	4c 8d 64 24 30       	lea    0x30(%rsp),%r12
  4023d2:	48 c7 44 24 32 00 00 	movq   $0x0,0x32(%rsp)
  4023d9:	00 00 
  4023db:	c7 44 24 3a 00 00 00 	movl   $0x0,0x3a(%rsp)
  4023e2:	00 
  4023e3:	66 c7 44 24 3e 00 00 	movw   $0x0,0x3e(%rsp)
  4023ea:	66 c7 44 24 30 02 00 	movw   $0x2,0x30(%rsp)
  4023f1:	48 63 50 14          	movslq 0x14(%rax),%rdx
  4023f5:	48 8b 40 18          	mov    0x18(%rax),%rax
  4023f9:	48 8b 30             	mov    (%rax),%rsi
  4023fc:	48 8d 7c 24 34       	lea    0x34(%rsp),%rdi
  402401:	b9 0c 00 00 00       	mov    $0xc,%ecx
  402406:	e8 55 e9 ff ff       	call   400d60 <__memmove_chk@plt>
  40240b:	0f b7 44 24 14       	movzwl 0x14(%rsp),%eax
  402410:	66 c1 c8 08          	ror    $0x8,%ax
  402414:	66 89 44 24 32       	mov    %ax,0x32(%rsp)
  402419:	ba 10 00 00 00       	mov    $0x10,%edx
  40241e:	4c 89 e6             	mov    %r12,%rsi
  402421:	89 df                	mov    %ebx,%edi
  402423:	e8 18 ea ff ff       	call   400e40 <connect@plt>
  402428:	85 c0                	test   %eax,%eax
  40242a:	0f 88 e7 02 00 00    	js     402717 <submitr+0x3c4>
  402430:	48 c7 c6 ff ff ff ff 	mov    $0xffffffffffffffff,%rsi
  402437:	b8 00 00 00 00       	mov    $0x0,%eax
  40243c:	48 89 f1             	mov    %rsi,%rcx
  40243f:	4c 89 f7             	mov    %r14,%rdi
  402442:	f2 ae                	repnz scas %es:(%rdi),%al
  402444:	48 89 ca             	mov    %rcx,%rdx
  402447:	48 f7 d2             	not    %rdx
  40244a:	48 89 f1             	mov    %rsi,%rcx
  40244d:	4c 89 ff             	mov    %r15,%rdi
  402450:	f2 ae                	repnz scas %es:(%rdi),%al
  402452:	48 f7 d1             	not    %rcx
  402455:	49 89 c8             	mov    %rcx,%r8
  402458:	48 89 f1             	mov    %rsi,%rcx
  40245b:	48 8b 7c 24 08       	mov    0x8(%rsp),%rdi
  402460:	f2 ae                	repnz scas %es:(%rdi),%al
  402462:	48 f7 d1             	not    %rcx
  402465:	4d 8d 44 08 fe       	lea    -0x2(%r8,%rcx,1),%r8
  40246a:	48 89 f1             	mov    %rsi,%rcx
  40246d:	48 8b 7c 24 18       	mov    0x18(%rsp),%rdi
  402472:	f2 ae                	repnz scas %es:(%rdi),%al
  402474:	48 89 c8             	mov    %rcx,%rax
  402477:	48 f7 d0             	not    %rax
  40247a:	49 8d 4c 00 ff       	lea    -0x1(%r8,%rax,1),%rcx
  40247f:	48 8d 44 52 fd       	lea    -0x3(%rdx,%rdx,2),%rax
  402484:	48 8d 84 01 80 00 00 	lea    0x80(%rcx,%rax,1),%rax
  40248b:	00 
  40248c:	48 3d 00 20 00 00    	cmp    $0x2000,%rax
  402492:	0f 87 d9 02 00 00    	ja     402771 <submitr+0x41e>
  402498:	48 8d b4 24 50 40 00 	lea    0x4050(%rsp),%rsi
  40249f:	00 
  4024a0:	b9 00 04 00 00       	mov    $0x400,%ecx
  4024a5:	b8 00 00 00 00       	mov    $0x0,%eax
  4024aa:	48 89 f7             	mov    %rsi,%rdi
  4024ad:	f3 48 ab             	rep stos %rax,%es:(%rdi)
  4024b0:	4c 89 f7             	mov    %r14,%rdi
  4024b3:	e8 88 fd ff ff       	call   402240 <urlencode>
  4024b8:	85 c0                	test   %eax,%eax
  4024ba:	0f 88 24 03 00 00    	js     4027e4 <submitr+0x491>
  4024c0:	4c 8d a4 24 50 20 00 	lea    0x2050(%rsp),%r12
  4024c7:	00 
  4024c8:	41 55                	push   %r13
  4024ca:	48 8d 84 24 58 40 00 	lea    0x4058(%rsp),%rax
  4024d1:	00 
  4024d2:	50                   	push   %rax
  4024d3:	4d 89 f9             	mov    %r15,%r9
  4024d6:	4c 8b 44 24 18       	mov    0x18(%rsp),%r8
  4024db:	48 8d 0d c6 10 00 00 	lea    0x10c6(%rip),%rcx        # 4035a8 <trans_char+0x38>
  4024e2:	ba 00 20 00 00       	mov    $0x2000,%edx
  4024e7:	be 01 00 00 00       	mov    $0x1,%esi
  4024ec:	4c 89 e7             	mov    %r12,%rdi
  4024ef:	b8 00 00 00 00       	mov    $0x0,%eax
  4024f4:	e8 67 e9 ff ff       	call   400e60 <__sprintf_chk@plt>
  4024f9:	48 c7 c1 ff ff ff ff 	mov    $0xffffffffffffffff,%rcx
  402500:	b8 00 00 00 00       	mov    $0x0,%eax
  402505:	4c 89 e7             	mov    %r12,%rdi
  402508:	f2 ae                	repnz scas %es:(%rdi),%al
  40250a:	48 89 ca             	mov    %rcx,%rdx
  40250d:	48 f7 d2             	not    %rdx
  402510:	48 8d 52 ff          	lea    -0x1(%rdx),%rdx
  402514:	4c 89 e6             	mov    %r12,%rsi
  402517:	89 df                	mov    %ebx,%edi
  402519:	e8 95 fb ff ff       	call   4020b3 <rio_writen>
  40251e:	48 83 c4 10          	add    $0x10,%rsp
  402522:	48 85 c0             	test   %rax,%rax
  402525:	0f 88 44 03 00 00    	js     40286f <submitr+0x51c>
  40252b:	4c 8d 64 24 40       	lea    0x40(%rsp),%r12
  402530:	89 de                	mov    %ebx,%esi
  402532:	4c 89 e7             	mov    %r12,%rdi
  402535:	e8 37 fb ff ff       	call   402071 <rio_readinitb>
  40253a:	48 8d b4 24 50 20 00 	lea    0x2050(%rsp),%rsi
  402541:	00 
  402542:	ba 00 20 00 00       	mov    $0x2000,%edx
  402547:	4c 89 e7             	mov    %r12,%rdi
  40254a:	e8 4d fc ff ff       	call   40219c <rio_readlineb>
  40254f:	48 85 c0             	test   %rax,%rax
  402552:	0f 8e 86 03 00 00    	jle    4028de <submitr+0x58b>
  402558:	48 8d 4c 24 2c       	lea    0x2c(%rsp),%rcx
  40255d:	48 8d 94 24 50 60 00 	lea    0x6050(%rsp),%rdx
  402564:	00 
  402565:	48 8d bc 24 50 20 00 	lea    0x2050(%rsp),%rdi
  40256c:	00 
  40256d:	4c 8d 84 24 50 80 00 	lea    0x8050(%rsp),%r8
  402574:	00 
  402575:	48 8d 35 a3 10 00 00 	lea    0x10a3(%rip),%rsi        # 40361f <trans_char+0xaf>
  40257c:	b8 00 00 00 00       	mov    $0x0,%eax
  402581:	e8 3a e8 ff ff       	call   400dc0 <__isoc99_sscanf@plt>
  402586:	48 8d b4 24 50 20 00 	lea    0x2050(%rsp),%rsi
  40258d:	00 
  40258e:	b9 03 00 00 00       	mov    $0x3,%ecx
  402593:	48 8d 3d 9c 10 00 00 	lea    0x109c(%rip),%rdi        # 403636 <trans_char+0xc6>
  40259a:	f3 a6                	repz cmpsb %es:(%rdi),%ds:(%rsi)
  40259c:	0f 97 c0             	seta   %al
  40259f:	1c 00                	sbb    $0x0,%al
  4025a1:	84 c0                	test   %al,%al
  4025a3:	0f 84 b3 03 00 00    	je     40295c <submitr+0x609>
  4025a9:	48 8d b4 24 50 20 00 	lea    0x2050(%rsp),%rsi
  4025b0:	00 
  4025b1:	48 8d 7c 24 40       	lea    0x40(%rsp),%rdi
  4025b6:	ba 00 20 00 00       	mov    $0x2000,%edx
  4025bb:	e8 dc fb ff ff       	call   40219c <rio_readlineb>
  4025c0:	48 85 c0             	test   %rax,%rax
  4025c3:	7f c1                	jg     402586 <submitr+0x233>
  4025c5:	48 b8 45 72 72 6f 72 	movabs $0x43203a726f727245,%rax
  4025cc:	3a 20 43 
  4025cf:	48 ba 6c 69 65 6e 74 	movabs $0x6e7520746e65696c,%rdx
  4025d6:	20 75 6e 
  4025d9:	48 89 45 00          	mov    %rax,0x0(%rbp)
  4025dd:	48 89 55 08          	mov    %rdx,0x8(%rbp)
  4025e1:	48 b8 61 62 6c 65 20 	movabs $0x206f7420656c6261,%rax
  4025e8:	74 6f 20 
  4025eb:	48 ba 72 65 61 64 20 	movabs $0x6165682064616572,%rdx
  4025f2:	68 65 61 
  4025f5:	48 89 45 10          	mov    %rax,0x10(%rbp)
  4025f9:	48 89 55 18          	mov    %rdx,0x18(%rbp)
  4025fd:	48 b8 64 65 72 73 20 	movabs $0x6f72662073726564,%rax
  402604:	66 72 6f 
  402607:	48 ba 6d 20 74 68 65 	movabs $0x657220656874206d,%rdx
  40260e:	20 72 65 
  402611:	48 89 45 20          	mov    %rax,0x20(%rbp)
  402615:	48 89 55 28          	mov    %rdx,0x28(%rbp)
  402619:	48 b8 73 75 6c 74 20 	movabs $0x72657320746c7573,%rax
  402620:	73 65 72 
  402623:	48 89 45 30          	mov    %rax,0x30(%rbp)
  402627:	c7 45 38 76 65 72 00 	movl   $0x726576,0x38(%rbp)
  40262e:	89 df                	mov    %ebx,%edi
  402630:	e8 eb e6 ff ff       	call   400d20 <close@plt>
  402635:	b8 ff ff ff ff       	mov    $0xffffffff,%eax
  40263a:	48 8b 9c 24 58 a0 00 	mov    0xa058(%rsp),%rbx
  402641:	00 
  402642:	64 48 33 1c 25 28 00 	xor    %fs:0x28,%rbx
  402649:	00 00 
  40264b:	0f 85 7e 04 00 00    	jne    402acf <submitr+0x77c>
  402651:	48 81 c4 68 a0 00 00 	add    $0xa068,%rsp
  402658:	5b                   	pop    %rbx
  402659:	5d                   	pop    %rbp
  40265a:	41 5c                	pop    %r12
  40265c:	41 5d                	pop    %r13
  40265e:	41 5e                	pop    %r14
  402660:	41 5f                	pop    %r15
  402662:	c3                   	ret
  402663:	48 b8 45 72 72 6f 72 	movabs $0x43203a726f727245,%rax
  40266a:	3a 20 43 
  40266d:	48 ba 6c 69 65 6e 74 	movabs $0x6e7520746e65696c,%rdx
  402674:	20 75 6e 
  402677:	48 89 45 00          	mov    %rax,0x0(%rbp)
  40267b:	48 89 55 08          	mov    %rdx,0x8(%rbp)
  40267f:	48 b8 61 62 6c 65 20 	movabs $0x206f7420656c6261,%rax
  402686:	74 6f 20 
  402689:	48 ba 63 72 65 61 74 	movabs $0x7320657461657263,%rdx
  402690:	65 20 73 
  402693:	48 89 45 10          	mov    %rax,0x10(%rbp)
  402697:	48 89 55 18          	mov    %rdx,0x18(%rbp)
  40269b:	c7 45 20 6f 63 6b 65 	movl   $0x656b636f,0x20(%rbp)
  4026a2:	66 c7 45 24 74 00    	movw   $0x74,0x24(%rbp)
  4026a8:	b8 ff ff ff ff       	mov    $0xffffffff,%eax
  4026ad:	eb 8b                	jmp    40263a <submitr+0x2e7>
  4026af:	48 b8 45 72 72 6f 72 	movabs $0x44203a726f727245,%rax
  4026b6:	3a 20 44 
  4026b9:	48 ba 4e 53 20 69 73 	movabs $0x6e7520736920534e,%rdx
  4026c0:	20 75 6e 
  4026c3:	48 89 45 00          	mov    %rax,0x0(%rbp)
  4026c7:	48 89 55 08          	mov    %rdx,0x8(%rbp)
  4026cb:	48 b8 61 62 6c 65 20 	movabs $0x206f7420656c6261,%rax
  4026d2:	74 6f 20 
  4026d5:	48 ba 72 65 73 6f 6c 	movabs $0x2065766c6f736572,%rdx
  4026dc:	76 65 20 
  4026df:	48 89 45 10          	mov    %rax,0x10(%rbp)
  4026e3:	48 89 55 18          	mov    %rdx,0x18(%rbp)
  4026e7:	48 b8 73 65 72 76 65 	movabs $0x6120726576726573,%rax
  4026ee:	72 20 61 
  4026f1:	48 89 45 20          	mov    %rax,0x20(%rbp)
  4026f5:	c7 45 28 64 64 72 65 	movl   $0x65726464,0x28(%rbp)
  4026fc:	66 c7 45 2c 73 73    	movw   $0x7373,0x2c(%rbp)
  402702:	c6 45 2e 00          	movb   $0x0,0x2e(%rbp)
  402706:	89 df                	mov    %ebx,%edi
  402708:	e8 13 e6 ff ff       	call   400d20 <close@plt>
  40270d:	b8 ff ff ff ff       	mov    $0xffffffff,%eax
  402712:	e9 23 ff ff ff       	jmp    40263a <submitr+0x2e7>
  402717:	48 b8 45 72 72 6f 72 	movabs $0x55203a726f727245,%rax
  40271e:	3a 20 55 
  402721:	48 ba 6e 61 62 6c 65 	movabs $0x6f7420656c62616e,%rdx
  402728:	20 74 6f 
  40272b:	48 89 45 00          	mov    %rax,0x0(%rbp)
  40272f:	48 89 55 08          	mov    %rdx,0x8(%rbp)
  402733:	48 b8 20 63 6f 6e 6e 	movabs $0x7463656e6e6f6320,%rax
  40273a:	65 63 74 
  40273d:	48 ba 20 74 6f 20 74 	movabs $0x20656874206f7420,%rdx
  402744:	68 65 20 
  402747:	48 89 45 10          	mov    %rax,0x10(%rbp)
  40274b:	48 89 55 18          	mov    %rdx,0x18(%rbp)
  40274f:	c7 45 20 73 65 72 76 	movl   $0x76726573,0x20(%rbp)
  402756:	66 c7 45 24 65 72    	movw   $0x7265,0x24(%rbp)
  40275c:	c6 45 26 00          	movb   $0x0,0x26(%rbp)
  402760:	89 df                	mov    %ebx,%edi
  402762:	e8 b9 e5 ff ff       	call   400d20 <close@plt>
  402767:	b8 ff ff ff ff       	mov    $0xffffffff,%eax
  40276c:	e9 c9 fe ff ff       	jmp    40263a <submitr+0x2e7>
  402771:	48 b8 45 72 72 6f 72 	movabs $0x52203a726f727245,%rax
  402778:	3a 20 52 
  40277b:	48 ba 65 73 75 6c 74 	movabs $0x747320746c757365,%rdx
  402782:	20 73 74 
  402785:	48 89 45 00          	mov    %rax,0x0(%rbp)
  402789:	48 89 55 08          	mov    %rdx,0x8(%rbp)
  40278d:	48 b8 72 69 6e 67 20 	movabs $0x6f6f7420676e6972,%rax
  402794:	74 6f 6f 
  402797:	48 ba 20 6c 61 72 67 	movabs $0x202e656772616c20,%rdx
  40279e:	65 2e 20 
  4027a1:	48 89 45 10          	mov    %rax,0x10(%rbp)
  4027a5:	48 89 55 18          	mov    %rdx,0x18(%rbp)
  4027a9:	48 b8 49 6e 63 72 65 	movabs $0x6573616572636e49,%rax
  4027b0:	61 73 65 
  4027b3:	48 ba 20 53 55 42 4d 	movabs $0x5254494d42555320,%rdx
  4027ba:	49 54 52 
  4027bd:	48 89 45 20          	mov    %rax,0x20(%rbp)
  4027c1:	48 89 55 28          	mov    %rdx,0x28(%rbp)
  4027c5:	48 b8 5f 4d 41 58 42 	movabs $0x46554258414d5f,%rax
  4027cc:	55 46 00 
  4027cf:	48 89 45 30          	mov    %rax,0x30(%rbp)
  4027d3:	89 df                	mov    %ebx,%edi
  4027d5:	e8 46 e5 ff ff       	call   400d20 <close@plt>
  4027da:	b8 ff ff ff ff       	mov    $0xffffffff,%eax
  4027df:	e9 56 fe ff ff       	jmp    40263a <submitr+0x2e7>
  4027e4:	48 b8 45 72 72 6f 72 	movabs $0x52203a726f727245,%rax
  4027eb:	3a 20 52 
  4027ee:	48 ba 65 73 75 6c 74 	movabs $0x747320746c757365,%rdx
  4027f5:	20 73 74 
  4027f8:	48 89 45 00          	mov    %rax,0x0(%rbp)
  4027fc:	48 89 55 08          	mov    %rdx,0x8(%rbp)
  402800:	48 b8 72 69 6e 67 20 	movabs $0x6e6f6320676e6972,%rax
  402807:	63 6f 6e 
  40280a:	48 ba 74 61 69 6e 73 	movabs $0x6e6120736e696174,%rdx
  402811:	20 61 6e 
  402814:	48 89 45 10          	mov    %rax,0x10(%rbp)
  402818:	48 89 55 18          	mov    %rdx,0x18(%rbp)
  40281c:	48 b8 20 69 6c 6c 65 	movabs $0x6c6167656c6c6920,%rax
  402823:	67 61 6c 
  402826:	48 ba 20 6f 72 20 75 	movabs $0x72706e7520726f20,%rdx
  40282d:	6e 70 72 
  402830:	48 89 45 20          	mov    %rax,0x20(%rbp)
  402834:	48 89 55 28          	mov    %rdx,0x28(%rbp)
  402838:	48 b8 69 6e 74 61 62 	movabs $0x20656c6261746e69,%rax
  40283f:	6c 65 20 
  402842:	48 ba 63 68 61 72 61 	movabs $0x6574636172616863,%rdx
  402849:	63 74 65 
  40284c:	48 89 45 30          	mov    %rax,0x30(%rbp)
  402850:	48 89 55 38          	mov    %rdx,0x38(%rbp)
  402854:	66 c7 45 40 72 2e    	movw   $0x2e72,0x40(%rbp)
  40285a:	c6 45 42 00          	movb   $0x0,0x42(%rbp)
  40285e:	89 df                	mov    %ebx,%edi
  402860:	e8 bb e4 ff ff       	call   400d20 <close@plt>
  402865:	b8 ff ff ff ff       	mov    $0xffffffff,%eax
  40286a:	e9 cb fd ff ff       	jmp    40263a <submitr+0x2e7>
  40286f:	48 b8 45 72 72 6f 72 	movabs $0x43203a726f727245,%rax
  402876:	3a 20 43 
  402879:	48 ba 6c 69 65 6e 74 	movabs $0x6e7520746e65696c,%rdx
  402880:	20 75 6e 
  402883:	48 89 45 00          	mov    %rax,0x0(%rbp)
  402887:	48 89 55 08          	mov    %rdx,0x8(%rbp)
  40288b:	48 b8 61 62 6c 65 20 	movabs $0x206f7420656c6261,%rax
  402892:	74 6f 20 
  402895:	48 ba 77 72 69 74 65 	movabs $0x6f74206574697277,%rdx
  40289c:	20 74 6f 
  40289f:	48 89 45 10          	mov    %rax,0x10(%rbp)
  4028a3:	48 89 55 18          	mov    %rdx,0x18(%rbp)
  4028a7:	48 b8 20 74 68 65 20 	movabs $0x7365722065687420,%rax
  4028ae:	72 65 73 
  4028b1:	48 ba 75 6c 74 20 73 	movabs $0x7672657320746c75,%rdx
  4028b8:	65 72 76 
  4028bb:	48 89 45 20          	mov    %rax,0x20(%rbp)
  4028bf:	48 89 55 28          	mov    %rdx,0x28(%rbp)
  4028c3:	66 c7 45 30 65 72    	movw   $0x7265,0x30(%rbp)
  4028c9:	c6 45 32 00          	movb   $0x0,0x32(%rbp)
  4028cd:	89 df                	mov    %ebx,%edi
  4028cf:	e8 4c e4 ff ff       	call   400d20 <close@plt>
  4028d4:	b8 ff ff ff ff       	mov    $0xffffffff,%eax
  4028d9:	e9 5c fd ff ff       	jmp    40263a <submitr+0x2e7>
  4028de:	48 b8 45 72 72 6f 72 	movabs $0x43203a726f727245,%rax
  4028e5:	3a 20 43 
  4028e8:	48 ba 6c 69 65 6e 74 	movabs $0x6e7520746e65696c,%rdx
  4028ef:	20 75 6e 
  4028f2:	48 89 45 00          	mov    %rax,0x0(%rbp)
  4028f6:	48 89 55 08          	mov    %rdx,0x8(%rbp)
  4028fa:	48 b8 61 62 6c 65 20 	movabs $0x206f7420656c6261,%rax
  402901:	74 6f 20 
  402904:	48 ba 72 65 61 64 20 	movabs $0x7269662064616572,%rdx
  40290b:	66 69 72 
  40290e:	48 89 45 10          	mov    %rax,0x10(%rbp)
  402912:	48 89 55 18          	mov    %rdx,0x18(%rbp)
  402916:	48 b8 73 74 20 68 65 	movabs $0x6564616568207473,%rax
  40291d:	61 64 65 
  402920:	48 ba 72 20 66 72 6f 	movabs $0x72206d6f72662072,%rdx
  402927:	6d 20 72 
  40292a:	48 89 45 20          	mov    %rax,0x20(%rbp)
  40292e:	48 89 55 28          	mov    %rdx,0x28(%rbp)
  402932:	48 b8 65 73 75 6c 74 	movabs $0x657320746c757365,%rax
  402939:	20 73 65 
  40293c:	48 89 45 30          	mov    %rax,0x30(%rbp)
  402940:	c7 45 38 72 76 65 72 	movl   $0x72657672,0x38(%rbp)
  402947:	c6 45 3c 00          	movb   $0x0,0x3c(%rbp)
  40294b:	89 df                	mov    %ebx,%edi
  40294d:	e8 ce e3 ff ff       	call   400d20 <close@plt>
  402952:	b8 ff ff ff ff       	mov    $0xffffffff,%eax
  402957:	e9 de fc ff ff       	jmp    40263a <submitr+0x2e7>
  40295c:	48 8d b4 24 50 20 00 	lea    0x2050(%rsp),%rsi
  402963:	00 
  402964:	48 8d 7c 24 40       	lea    0x40(%rsp),%rdi
  402969:	ba 00 20 00 00       	mov    $0x2000,%edx
  40296e:	e8 29 f8 ff ff       	call   40219c <rio_readlineb>
  402973:	48 85 c0             	test   %rax,%rax
  402976:	0f 8e 96 00 00 00    	jle    402a12 <submitr+0x6bf>
  40297c:	44 8b 44 24 2c       	mov    0x2c(%rsp),%r8d
  402981:	41 81 f8 c8 00 00 00 	cmp    $0xc8,%r8d
  402988:	0f 85 08 01 00 00    	jne    402a96 <submitr+0x743>
  40298e:	48 8d b4 24 50 20 00 	lea    0x2050(%rsp),%rsi
  402995:	00 
  402996:	48 89 ef             	mov    %rbp,%rdi
  402999:	e8 12 e3 ff ff       	call   400cb0 <strcpy@plt>
  40299e:	89 df                	mov    %ebx,%edi
  4029a0:	e8 7b e3 ff ff       	call   400d20 <close@plt>
  4029a5:	b9 04 00 00 00       	mov    $0x4,%ecx
  4029aa:	48 8d 3d 7f 0c 00 00 	lea    0xc7f(%rip),%rdi        # 403630 <trans_char+0xc0>
  4029b1:	48 89 ee             	mov    %rbp,%rsi
  4029b4:	f3 a6                	repz cmpsb %es:(%rdi),%ds:(%rsi)
  4029b6:	0f 97 c0             	seta   %al
  4029b9:	1c 00                	sbb    $0x0,%al
  4029bb:	0f be c0             	movsbl %al,%eax
  4029be:	85 c0                	test   %eax,%eax
  4029c0:	0f 84 74 fc ff ff    	je     40263a <submitr+0x2e7>
  4029c6:	b9 05 00 00 00       	mov    $0x5,%ecx
  4029cb:	48 8d 3d 62 0c 00 00 	lea    0xc62(%rip),%rdi        # 403634 <trans_char+0xc4>
  4029d2:	48 89 ee             	mov    %rbp,%rsi
  4029d5:	f3 a6                	repz cmpsb %es:(%rdi),%ds:(%rsi)
  4029d7:	0f 97 c0             	seta   %al
  4029da:	1c 00                	sbb    $0x0,%al
  4029dc:	0f be c0             	movsbl %al,%eax
  4029df:	85 c0                	test   %eax,%eax
  4029e1:	0f 84 53 fc ff ff    	je     40263a <submitr+0x2e7>
  4029e7:	b9 03 00 00 00       	mov    $0x3,%ecx
  4029ec:	48 8d 3d 46 0c 00 00 	lea    0xc46(%rip),%rdi        # 403639 <trans_char+0xc9>
  4029f3:	48 89 ee             	mov    %rbp,%rsi
  4029f6:	f3 a6                	repz cmpsb %es:(%rdi),%ds:(%rsi)
  4029f8:	0f 97 c0             	seta   %al
  4029fb:	1c 00                	sbb    $0x0,%al
  4029fd:	0f be c0             	movsbl %al,%eax
  402a00:	85 c0                	test   %eax,%eax
  402a02:	0f 84 32 fc ff ff    	je     40263a <submitr+0x2e7>
  402a08:	b8 ff ff ff ff       	mov    $0xffffffff,%eax
  402a0d:	e9 28 fc ff ff       	jmp    40263a <submitr+0x2e7>
  402a12:	48 b8 45 72 72 6f 72 	movabs $0x43203a726f727245,%rax
  402a19:	3a 20 43 
  402a1c:	48 ba 6c 69 65 6e 74 	movabs $0x6e7520746e65696c,%rdx
  402a23:	20 75 6e 
  402a26:	48 89 45 00          	mov    %rax,0x0(%rbp)
  402a2a:	48 89 55 08          	mov    %rdx,0x8(%rbp)
  402a2e:	48 b8 61 62 6c 65 20 	movabs $0x206f7420656c6261,%rax
  402a35:	74 6f 20 
  402a38:	48 ba 72 65 61 64 20 	movabs $0x6174732064616572,%rdx
  402a3f:	73 74 61 
  402a42:	48 89 45 10          	mov    %rax,0x10(%rbp)
  402a46:	48 89 55 18          	mov    %rdx,0x18(%rbp)
  402a4a:	48 b8 74 75 73 20 6d 	movabs $0x7373656d20737574,%rax
  402a51:	65 73 73 
  402a54:	48 ba 61 67 65 20 66 	movabs $0x6d6f726620656761,%rdx
  402a5b:	72 6f 6d 
  402a5e:	48 89 45 20          	mov    %rax,0x20(%rbp)
  402a62:	48 89 55 28          	mov    %rdx,0x28(%rbp)
  402a66:	48 b8 20 72 65 73 75 	movabs $0x20746c7573657220,%rax
  402a6d:	6c 74 20 
  402a70:	48 89 45 30          	mov    %rax,0x30(%rbp)
  402a74:	c7 45 38 73 65 72 76 	movl   $0x76726573,0x38(%rbp)
  402a7b:	66 c7 45 3c 65 72    	movw   $0x7265,0x3c(%rbp)
  402a81:	c6 45 3e 00          	movb   $0x0,0x3e(%rbp)
  402a85:	89 df                	mov    %ebx,%edi
  402a87:	e8 94 e2 ff ff       	call   400d20 <close@plt>
  402a8c:	b8 ff ff ff ff       	mov    $0xffffffff,%eax
  402a91:	e9 a4 fb ff ff       	jmp    40263a <submitr+0x2e7>
  402a96:	4c 8d 8c 24 50 80 00 	lea    0x8050(%rsp),%r9
  402a9d:	00 
  402a9e:	48 8d 0d 43 0b 00 00 	lea    0xb43(%rip),%rcx        # 4035e8 <trans_char+0x78>
  402aa5:	48 c7 c2 ff ff ff ff 	mov    $0xffffffffffffffff,%rdx
  402aac:	be 01 00 00 00       	mov    $0x1,%esi
  402ab1:	48 89 ef             	mov    %rbp,%rdi
  402ab4:	b8 00 00 00 00       	mov    $0x0,%eax
  402ab9:	e8 a2 e3 ff ff       	call   400e60 <__sprintf_chk@plt>
  402abe:	89 df                	mov    %ebx,%edi
  402ac0:	e8 5b e2 ff ff       	call   400d20 <close@plt>
  402ac5:	b8 ff ff ff ff       	mov    $0xffffffff,%eax
  402aca:	e9 6b fb ff ff       	jmp    40263a <submitr+0x2e7>
  402acf:	e8 0c e2 ff ff       	call   400ce0 <__stack_chk_fail@plt>

0000000000402ad4 <init_timeout>:
  402ad4:	85 ff                	test   %edi,%edi
  402ad6:	74 28                	je     402b00 <init_timeout+0x2c>
  402ad8:	53                   	push   %rbx
  402ad9:	89 fb                	mov    %edi,%ebx
  402adb:	85 ff                	test   %edi,%edi
  402add:	78 1a                	js     402af9 <init_timeout+0x25>
  402adf:	48 8d 35 9d f5 ff ff 	lea    -0xa63(%rip),%rsi        # 402083 <sigalrm_handler>
  402ae6:	bf 0e 00 00 00       	mov    $0xe,%edi
  402aeb:	e8 50 e2 ff ff       	call   400d40 <signal@plt>
  402af0:	89 df                	mov    %ebx,%edi
  402af2:	e8 19 e2 ff ff       	call   400d10 <alarm@plt>
  402af7:	5b                   	pop    %rbx
  402af8:	c3                   	ret
  402af9:	bb 00 00 00 00       	mov    $0x0,%ebx
  402afe:	eb df                	jmp    402adf <init_timeout+0xb>
  402b00:	f3 c3                	repz ret

0000000000402b02 <init_driver>:
  402b02:	41 54                	push   %r12
  402b04:	55                   	push   %rbp
  402b05:	53                   	push   %rbx
  402b06:	48 83 ec 20          	sub    $0x20,%rsp
  402b0a:	49 89 fc             	mov    %rdi,%r12
  402b0d:	64 48 8b 04 25 28 00 	mov    %fs:0x28,%rax
  402b14:	00 00 
  402b16:	48 89 44 24 18       	mov    %rax,0x18(%rsp)
  402b1b:	31 c0                	xor    %eax,%eax
  402b1d:	be 01 00 00 00       	mov    $0x1,%esi
  402b22:	bf 0d 00 00 00       	mov    $0xd,%edi
  402b27:	e8 14 e2 ff ff       	call   400d40 <signal@plt>
  402b2c:	be 01 00 00 00       	mov    $0x1,%esi
  402b31:	bf 1d 00 00 00       	mov    $0x1d,%edi
  402b36:	e8 05 e2 ff ff       	call   400d40 <signal@plt>
  402b3b:	be 01 00 00 00       	mov    $0x1,%esi
  402b40:	bf 1d 00 00 00       	mov    $0x1d,%edi
  402b45:	e8 f6 e1 ff ff       	call   400d40 <signal@plt>
  402b4a:	ba 00 00 00 00       	mov    $0x0,%edx
  402b4f:	be 01 00 00 00       	mov    $0x1,%esi
  402b54:	bf 02 00 00 00       	mov    $0x2,%edi
  402b59:	e8 12 e3 ff ff       	call   400e70 <socket@plt>
  402b5e:	85 c0                	test   %eax,%eax
  402b60:	0f 88 a3 00 00 00    	js     402c09 <init_driver+0x107>
  402b66:	89 c3                	mov    %eax,%ebx
  402b68:	48 8d 3d cd 0a 00 00 	lea    0xacd(%rip),%rdi        # 40363c <trans_char+0xcc>
  402b6f:	e8 dc e1 ff ff       	call   400d50 <gethostbyname@plt>
  402b74:	48 85 c0             	test   %rax,%rax
  402b77:	0f 84 df 00 00 00    	je     402c5c <init_driver+0x15a>
  402b7d:	48 89 e5             	mov    %rsp,%rbp
  402b80:	48 c7 44 24 02 00 00 	movq   $0x0,0x2(%rsp)
  402b87:	00 00 
  402b89:	c7 45 0a 00 00 00 00 	movl   $0x0,0xa(%rbp)
  402b90:	66 c7 45 0e 00 00    	movw   $0x0,0xe(%rbp)
  402b96:	66 c7 04 24 02 00    	movw   $0x2,(%rsp)
  402b9c:	48 63 50 14          	movslq 0x14(%rax),%rdx
  402ba0:	48 8b 40 18          	mov    0x18(%rax),%rax
  402ba4:	48 8b 30             	mov    (%rax),%rsi
  402ba7:	48 8d 7d 04          	lea    0x4(%rbp),%rdi
  402bab:	b9 0c 00 00 00       	mov    $0xc,%ecx
  402bb0:	e8 ab e1 ff ff       	call   400d60 <__memmove_chk@plt>
  402bb5:	66 c7 44 24 02 3c 9a 	movw   $0x9a3c,0x2(%rsp)
  402bbc:	ba 10 00 00 00       	mov    $0x10,%edx
  402bc1:	48 89 ee             	mov    %rbp,%rsi
  402bc4:	89 df                	mov    %ebx,%edi
  402bc6:	e8 75 e2 ff ff       	call   400e40 <connect@plt>
  402bcb:	85 c0                	test   %eax,%eax
  402bcd:	0f 88 fb 00 00 00    	js     402cce <init_driver+0x1cc>
  402bd3:	89 df                	mov    %ebx,%edi
  402bd5:	e8 46 e1 ff ff       	call   400d20 <close@plt>
  402bda:	66 41 c7 04 24 4f 4b 	movw   $0x4b4f,(%r12)
  402be1:	41 c6 44 24 02 00    	movb   $0x0,0x2(%r12)
  402be7:	b8 00 00 00 00       	mov    $0x0,%eax
  402bec:	48 8b 4c 24 18       	mov    0x18(%rsp),%rcx
  402bf1:	64 48 33 0c 25 28 00 	xor    %fs:0x28,%rcx
  402bf8:	00 00 
  402bfa:	0f 85 28 01 00 00    	jne    402d28 <init_driver+0x226>
  402c00:	48 83 c4 20          	add    $0x20,%rsp
  402c04:	5b                   	pop    %rbx
  402c05:	5d                   	pop    %rbp
  402c06:	41 5c                	pop    %r12
  402c08:	c3                   	ret
  402c09:	48 b8 45 72 72 6f 72 	movabs $0x43203a726f727245,%rax
  402c10:	3a 20 43 
  402c13:	48 ba 6c 69 65 6e 74 	movabs $0x6e7520746e65696c,%rdx
  402c1a:	20 75 6e 
  402c1d:	49 89 04 24          	mov    %rax,(%r12)
  402c21:	49 89 54 24 08       	mov    %rdx,0x8(%r12)
  402c26:	48 b8 61 62 6c 65 20 	movabs $0x206f7420656c6261,%rax
  402c2d:	74 6f 20 
  402c30:	48 ba 63 72 65 61 74 	movabs $0x7320657461657263,%rdx
  402c37:	65 20 73 
  402c3a:	49 89 44 24 10       	mov    %rax,0x10(%r12)
  402c3f:	49 89 54 24 18       	mov    %rdx,0x18(%r12)
  402c44:	41 c7 44 24 20 6f 63 	movl   $0x656b636f,0x20(%r12)
  402c4b:	6b 65 
  402c4d:	66 41 c7 44 24 24 74 	movw   $0x74,0x24(%r12)
  402c54:	00 
  402c55:	b8 ff ff ff ff       	mov    $0xffffffff,%eax
  402c5a:	eb 90                	jmp    402bec <init_driver+0xea>
  402c5c:	48 b8 45 72 72 6f 72 	movabs $0x44203a726f727245,%rax
  402c63:	3a 20 44 
  402c66:	48 ba 4e 53 20 69 73 	movabs $0x6e7520736920534e,%rdx
  402c6d:	20 75 6e 
  402c70:	49 89 04 24          	mov    %rax,(%r12)
  402c74:	49 89 54 24 08       	mov    %rdx,0x8(%r12)
  402c79:	48 b8 61 62 6c 65 20 	movabs $0x206f7420656c6261,%rax
  402c80:	74 6f 20 
  402c83:	48 ba 72 65 73 6f 6c 	movabs $0x2065766c6f736572,%rdx
  402c8a:	76 65 20 
  402c8d:	49 89 44 24 10       	mov    %rax,0x10(%r12)
  402c92:	49 89 54 24 18       	mov    %rdx,0x18(%r12)
  402c97:	48 b8 73 65 72 76 65 	movabs $0x6120726576726573,%rax
  402c9e:	72 20 61 
  402ca1:	49 89 44 24 20       	mov    %rax,0x20(%r12)
  402ca6:	41 c7 44 24 28 64 64 	movl   $0x65726464,0x28(%r12)
  402cad:	72 65 
  402caf:	66 41 c7 44 24 2c 73 	movw   $0x7373,0x2c(%r12)
  402cb6:	73 
  402cb7:	41 c6 44 24 2e 00    	movb   $0x0,0x2e(%r12)
  402cbd:	89 df                	mov    %ebx,%edi
  402cbf:	e8 5c e0 ff ff       	call   400d20 <close@plt>
  402cc4:	b8 ff ff ff ff       	mov    $0xffffffff,%eax
  402cc9:	e9 1e ff ff ff       	jmp    402bec <init_driver+0xea>
  402cce:	48 b8 45 72 72 6f 72 	movabs $0x55203a726f727245,%rax
  402cd5:	3a 20 55 
  402cd8:	48 ba 6e 61 62 6c 65 	movabs $0x6f7420656c62616e,%rdx
  402cdf:	20 74 6f 
  402ce2:	49 89 04 24          	mov    %rax,(%r12)
  402ce6:	49 89 54 24 08       	mov    %rdx,0x8(%r12)
  402ceb:	48 b8 20 63 6f 6e 6e 	movabs $0x7463656e6e6f6320,%rax
  402cf2:	65 63 74 
  402cf5:	48 ba 20 74 6f 20 73 	movabs $0x76726573206f7420,%rdx
  402cfc:	65 72 76 
  402cff:	49 89 44 24 10       	mov    %rax,0x10(%r12)
  402d04:	49 89 54 24 18       	mov    %rdx,0x18(%r12)
  402d09:	66 41 c7 44 24 20 65 	movw   $0x7265,0x20(%r12)
  402d10:	72 
  402d11:	41 c6 44 24 22 00    	movb   $0x0,0x22(%r12)
  402d17:	89 df                	mov    %ebx,%edi
  402d19:	e8 02 e0 ff ff       	call   400d20 <close@plt>
  402d1e:	b8 ff ff ff ff       	mov    $0xffffffff,%eax
  402d23:	e9 c4 fe ff ff       	jmp    402bec <init_driver+0xea>
  402d28:	e8 b3 df ff ff       	call   400ce0 <__stack_chk_fail@plt>

0000000000402d2d <driver_post>:
  402d2d:	53                   	push   %rbx
  402d2e:	4c 89 cb             	mov    %r9,%rbx
  402d31:	45 85 c0             	test   %r8d,%r8d
  402d34:	75 18                	jne    402d4e <driver_post+0x21>
  402d36:	48 85 ff             	test   %rdi,%rdi
  402d39:	74 05                	je     402d40 <driver_post+0x13>
  402d3b:	80 3f 00             	cmpb   $0x0,(%rdi)
  402d3e:	75 37                	jne    402d77 <driver_post+0x4a>
  402d40:	66 c7 03 4f 4b       	movw   $0x4b4f,(%rbx)
  402d45:	c6 43 02 00          	movb   $0x0,0x2(%rbx)
  402d49:	44 89 c0             	mov    %r8d,%eax
  402d4c:	5b                   	pop    %rbx
  402d4d:	c3                   	ret
  402d4e:	48 89 ca             	mov    %rcx,%rdx
  402d51:	48 8d 35 fc 08 00 00 	lea    0x8fc(%rip),%rsi        # 403654 <trans_char+0xe4>
  402d58:	bf 01 00 00 00       	mov    $0x1,%edi
  402d5d:	b8 00 00 00 00       	mov    $0x0,%eax
  402d62:	e8 79 e0 ff ff       	call   400de0 <__printf_chk@plt>
  402d67:	66 c7 03 4f 4b       	movw   $0x4b4f,(%rbx)
  402d6c:	c6 43 02 00          	movb   $0x0,0x2(%rbx)
  402d70:	b8 00 00 00 00       	mov    $0x0,%eax
  402d75:	eb d5                	jmp    402d4c <driver_post+0x1f>
  402d77:	48 83 ec 08          	sub    $0x8,%rsp
  402d7b:	41 51                	push   %r9
  402d7d:	49 89 c9             	mov    %rcx,%r9
  402d80:	49 89 d0             	mov    %rdx,%r8
  402d83:	48 89 f9             	mov    %rdi,%rcx
  402d86:	48 89 f2             	mov    %rsi,%rdx
  402d89:	be 9a 3c 00 00       	mov    $0x3c9a,%esi
  402d8e:	48 8d 3d a7 08 00 00 	lea    0x8a7(%rip),%rdi        # 40363c <trans_char+0xcc>
  402d95:	e8 b9 f5 ff ff       	call   402353 <submitr>
  402d9a:	48 83 c4 10          	add    $0x10,%rsp
  402d9e:	eb ac                	jmp    402d4c <driver_post+0x1f>

0000000000402da0 <check>:
  402da0:	89 f8                	mov    %edi,%eax
  402da2:	c1 e8 1c             	shr    $0x1c,%eax
  402da5:	85 c0                	test   %eax,%eax
  402da7:	74 1d                	je     402dc6 <check+0x26>
  402da9:	b9 00 00 00 00       	mov    $0x0,%ecx
  402dae:	83 f9 1f             	cmp    $0x1f,%ecx
  402db1:	7f 0d                	jg     402dc0 <check+0x20>
  402db3:	89 f8                	mov    %edi,%eax
  402db5:	d3 e8                	shr    %cl,%eax
  402db7:	3c 0a                	cmp    $0xa,%al
  402db9:	74 11                	je     402dcc <check+0x2c>
  402dbb:	83 c1 08             	add    $0x8,%ecx
  402dbe:	eb ee                	jmp    402dae <check+0xe>
  402dc0:	b8 01 00 00 00       	mov    $0x1,%eax
  402dc5:	c3                   	ret
  402dc6:	b8 00 00 00 00       	mov    $0x0,%eax
  402dcb:	c3                   	ret
  402dcc:	b8 00 00 00 00       	mov    $0x0,%eax
  402dd1:	c3                   	ret

0000000000402dd2 <gencookie>:
  402dd2:	53                   	push   %rbx
  402dd3:	83 c7 01             	add    $0x1,%edi
  402dd6:	e8 b5 de ff ff       	call   400c90 <srandom@plt>
  402ddb:	e8 c0 df ff ff       	call   400da0 <random@plt>
  402de0:	89 c3                	mov    %eax,%ebx
  402de2:	89 c7                	mov    %eax,%edi
  402de4:	e8 b7 ff ff ff       	call   402da0 <check>
  402de9:	85 c0                	test   %eax,%eax
  402deb:	74 ee                	je     402ddb <gencookie+0x9>
  402ded:	89 d8                	mov    %ebx,%eax
  402def:	5b                   	pop    %rbx
  402df0:	c3                   	ret
  402df1:	66 2e 0f 1f 84 00 00 	cs nopw 0x0(%rax,%rax,1)
  402df8:	00 00 00 
  402dfb:	0f 1f 44 00 00       	nopl   0x0(%rax,%rax,1)

0000000000402e00 <__libc_csu_init>:
  402e00:	41 57                	push   %r15
  402e02:	41 56                	push   %r14
  402e04:	49 89 d7             	mov    %rdx,%r15
  402e07:	41 55                	push   %r13
  402e09:	41 54                	push   %r12
  402e0b:	4c 8d 25 fe 0f 20 00 	lea    0x200ffe(%rip),%r12        # 603e10 <__frame_dummy_init_array_entry>
  402e12:	55                   	push   %rbp
  402e13:	48 8d 2d fe 0f 20 00 	lea    0x200ffe(%rip),%rbp        # 603e18 <__do_global_dtors_aux_fini_array_entry>
  402e1a:	53                   	push   %rbx
  402e1b:	41 89 fd             	mov    %edi,%r13d
  402e1e:	49 89 f6             	mov    %rsi,%r14
  402e21:	4c 29 e5             	sub    %r12,%rbp
  402e24:	48 83 ec 08          	sub    $0x8,%rsp
  402e28:	48 c1 fd 03          	sar    $0x3,%rbp
  402e2c:	e8 17 de ff ff       	call   400c48 <_init>
  402e31:	48 85 ed             	test   %rbp,%rbp
  402e34:	74 20                	je     402e56 <__libc_csu_init+0x56>
  402e36:	31 db                	xor    %ebx,%ebx
  402e38:	0f 1f 84 00 00 00 00 	nopl   0x0(%rax,%rax,1)
  402e3f:	00 
  402e40:	4c 89 fa             	mov    %r15,%rdx
  402e43:	4c 89 f6             	mov    %r14,%rsi
  402e46:	44 89 ef             	mov    %r13d,%edi
  402e49:	41 ff 14 dc          	call   *(%r12,%rbx,8)
  402e4d:	48 83 c3 01          	add    $0x1,%rbx
  402e51:	48 39 dd             	cmp    %rbx,%rbp
  402e54:	75 ea                	jne    402e40 <__libc_csu_init+0x40>
  402e56:	48 83 c4 08          	add    $0x8,%rsp
  402e5a:	5b                   	pop    %rbx
  402e5b:	5d                   	pop    %rbp
  402e5c:	41 5c                	pop    %r12
  402e5e:	41 5d                	pop    %r13
  402e60:	41 5e                	pop    %r14
  402e62:	41 5f                	pop    %r15
  402e64:	c3                   	ret
  402e65:	90                   	nop
  402e66:	66 2e 0f 1f 84 00 00 	cs nopw 0x0(%rax,%rax,1)
  402e6d:	00 00 00 

0000000000402e70 <__libc_csu_fini>:
  402e70:	f3 c3                	repz ret

Disassembly of section .fini:

0000000000402e74 <_fini>:
  402e74:	48 83 ec 08          	sub    $0x8,%rsp
  402e78:	48 83 c4 08          	add    $0x8,%rsp
  402e7c:	c3                   	ret
